(dp0
S'init-silence'
p1
F0.0
sS'basedynamics'
p2
F100.0
sS'tempo'
p3
F121.69645327739607
sS'target'
p4
Vbac-inv008-wiener-p026-027.xml
p5
sS'note_deviations'
p6
(dp7
S'P1,28,3,B-3,8'
p8
(F0.00924855491329475
F-0.05346820809248656
F0.72
F-0.05346820809248656
tp9
sS'P1,9,3,B3,8'
p10
(F0.004176610978520294
F0.003579952267303621
F0.46
F0.003579952267303621
tp11
sS'P1,31,3,B-3,2'
p12
(F-0.013385826771653508
F-0.024015748031496087
F0.91
F-0.024015748031496087
tp13
sS'P1,28,3,B-3,0'
p14
(F0.019931662870159305
F-0.045558086560365946
F0.7000000000000001
F-0.045558086560365946
tp15
sS'P1,28,3,B-3,4'
p16
(F0.008655510675129869
F-0.05438545874206499
F0.71
F-0.05438545874206499
tp17
sS'P1,8,1,B-4,11'
p18
(F0.013329706202394043
F-0.034276387377584094
F0.32
F-0.034276387377584094
tp19
sS'P1,31,3,B-3,0'
p20
(F0.007874015748031496
F-0.002755905511811041
F0.64
F-0.002755905511811041
tp21
sS'P1,14,1,E5,7'
p22
(F-0.0026867275658243317
F-0.0031185031185026746
F0.64
F-0.0031185031185026746
tp23
sS'P1,10,3,F3,7'
p24
(F0.03836184551581133
F0.026827371695179014
F0.61
F0.026827371695179014
tp25
sS'P1,14,1,E5,9'
p26
(F-0.003638253638252764
F-0.004158004158002715
F0.64
F-0.004158004158002715
tp27
sS'P1,10,3,F3,9'
p28
(F0.015292897874546796
F0.0037584240539144664
F0.61
F0.0037584240539144664
tp29
sS'P1,23,1,A4,4'
p30
(F-0.011185682326612878
F-0.010555234239444267
F0.86
F-0.010555234239444267
tp31
sS'P1,18,3,D4,5'
p32
(F0.006246605105919678
F0.001765344921236922
F0.74
F0.001765344921236922
tp33
sS'P1,14,1,A5,4'
p34
(F-0.026464266523374413
F-0.01853842020419111
F0.64
F-0.01853842020419111
tp35
sS'P1,22,1,E5,1'
p36
(F-0.014446890478812757
F-0.02118877270225955
F0.63
F-0.02118877270225955
tp37
sS'P1,18,3,D4,3'
p38
(F0.015209125475285142
F0.010727865290602434
F0.74
F0.010727865290602434
tp39
sS'P1,14,1,A5,2'
p40
(F-0.0063619227144229296
F-0.03016022620169978
F0.61
F-0.03016022620169978
tp41
sS'P1,11,1,C5,1'
p42
(F0.04972544234289089
F-0.16595485051861059
F0.76
F-0.16595485051861059
tp43
sS'P1,22,1,B4,10'
p44
(F-0.00987224157956329
F-0.0031939605110407054
F0.79
F-0.0031939605110407054
tp45
sS'P1,11,1,C5,3'
p46
(F-0.00980392156862625
F-0.22426470588235092
F0.66
F-0.22426470588235092
tp47
sS'P1,15,1,B-4,6'
p48
(F0.021874999999999978
F0.021874999999999978
F0.53
F0.021874999999999978
tp49
sS'P1,15,1,B-4,1'
p50
(F0.002006420545745624
F0.008828250401282656
F0.64
F0.008828250401282656
tp51
sS'P1,28,3,D4,11'
p52
(F0.01184971098265497
F-0.05086705202312625
F0.49
F-0.05086705202312625
tp53
sS'P1,10,1,E4,2'
p54
(F-0.02356615559341324
F-0.0827654741624082
F0.64
F-0.0827654741624082
tp55
sS'P1,3,1,C5,5'
p56
(F0.022306855277475668
F-0.3601741022850923
F0.75
F-0.3601741022850923
tp57
sS'P1,3,1,C5,2'
p58
(F0.01841196777905637
F-0.35730724971231315
F0.75
F-0.35730724971231315
tp59
sS'P1,10,3,B3,4'
p60
(F0.04297297297297259
F0.041621621621620974
F0.61
F0.041621621621620974
tp61
sS'P1,2,1,E5,1'
p62
(F-0.008448540706605168
F-0.12019969278033793
F0.39
F-0.12019969278033793
tp63
sS'P1,8,3,G3,3'
p64
(F-0.011369645690110841
F-0.25753569539925936
F0.67
F-0.25753569539925936
tp65
sS'P1,10,3,B3,2'
p66
(F0.03534923339011864
F0.044324324324324274
F0.61
F0.044324324324324274
tp67
sS'P1,7,1,F5,4'
p68
(F0.04272579772850182
F-0.24959437533802104
F0.64
F-0.24959437533802104
tp69
sS'P1,29,3,B-3,9'
p70
(F0.010823089257081253
F0.006680919294493881
F0.6900000000000001
F0.006680919294493881
tp71
sS'P1,23,1,C#5,8'
p72
(F-0.008675534991322342
F-0.018380320619127283
F0.79
F-0.018380320619127283
tp73
sS'P1,25,1,E5,0'
p74
(F0.009495548961424434
F-0.23412462908011578
F0.64
F-0.23412462908011578
tp75
sS'P1,3,3,D4,2'
p76
(F-0.013636363636363114
F-0.018181818181817522
F0.71
F-0.018181818181817522
tp77
sS'P1,29,3,B-3,7'
p78
(F0.013358778625955692
F0.013896312132549412
F0.6900000000000001
F0.013896312132549412
tp79
sS'P1,3,3,D4,4'
p80
(F-0.019850402761795394
F-0.02128883774453444
F0.75
F-0.02128883774453444
tp81
sS'P1,29,3,B-3,1'
p82
(F0.005179934569248035
F0.0059978189749191335
F0.64
F0.0059978189749191335
tp83
sS'P1,29,3,B-3,3'
p84
(F0.00790621592148455
F0.00872410032715378
F0.64
F0.00872410032715378
tp85
sS'P1,14,3,E3,1'
p86
(F0.07775683317624693
F-0.26390197926484704
F0.58
F-0.26390197926484704
tp87
sS'P1,14,3,E3,3'
p88
(F0.02767329392799589
F-0.2917786136485756
F0.64
F-0.2917786136485756
tp89
sS'P1,31,3,C4,1'
p90
(F-0.002755905511811041
F-0.013385826771653508
F0.24
F-0.013385826771653508
tp91
sS'P1,19,3,E4,5'
p92
(F-0.05374331550802186
F-0.11657754010695281
F0.61
F-0.11657754010695281
tp93
sS'P1,6,1,E5,6'
p94
(F0.05143338954468635
F0.07124789207419646
F0.49
F0.07124789207419646
tp95
sS'P1,19,3,E4,7'
p96
(F-0.05534759358288943
F-0.11818181818182039
F0.68
F-0.11818181818182039
tp97
sS'P1,10,3,G3,8'
p98
(F0.026827371695179014
F0.015292897874546796
F0.61
F0.015292897874546796
tp99
sS'P1,6,1,E5,2'
p100
(F0.03303720155469314
F0.04955580233203971
F0.52
F0.04955580233203971
tp101
sS'P1,19,3,E4,3'
p102
(F-0.04411764705882315
F-0.11192087454450772
F0.6
F-0.11192087454450772
tp103
sS'P1,8,1,F5,5'
p104
(F0.01441036488630365
F-0.038868323638286406
F0.32
F-0.038868323638286406
tp105
sS'P1,10,3,G3,0'
p106
(F0.00056785917092561
F-0.23708120386144255
F0.46
F-0.23708120386144255
tp107
sS'P1,19,3,E4,9'
p108
(F-0.06485301701908167
F-0.13434760185662642
F0.6900000000000001
F-0.13434760185662642
tp109
sS'P1,10,3,G3,6'
p110
(F0.041351351351350374
F0.03836184551581133
F0.61
F0.03836184551581133
tp111
sS'P1,8,1,F5,3'
p112
(F0.022727272727273373
F-0.030655391120506525
F0.32
F-0.030655391120506525
tp113
sS'P1,14,1,G5,5'
p114
(F-0.01853842020419111
F-0.010612573885007692
F0.64
F-0.010612573885007692
tp115
sS'P1,14,1,G5,3'
p116
(F-0.03016022620169978
F-0.026464266523374413
F0.64
F-0.026464266523374413
tp117
sS'P1,32,1,A3,2'
p118
(F-0.045733578882751647
F-0.04281767955801341
F0.8300000000000001
F-0.04281767955801341
tp119
sS'P1,32,1,A3,0'
p120
(F-0.022875816993461084
F-0.035144260282382545
F0.8300000000000001
F-0.035144260282382545
tp121
sS'P1,11,1,F4,0'
p122
(F0.00793166564978644
F-0.20774862721171505
F0.79
F-0.20774862721171505
tp123
sS'P1,32,1,A3,8'
p124
(F0.03627569528416086
F-0.2025392986698893
F0.52
F-0.2025392986698893
tp125
sS'P1,8,1,C5,8'
p126
(F0.00380848748639826
F-0.04379760609357994
F0.32
F-0.04379760609357994
tp127
sS'P1,33,1,G3,4'
p128
(F-0.006155567991045552
F-0.3482335976928616
F0.65
F-0.3482335976928616
tp129
sS'P1,22,1,A5,3'
p130
(F-0.027930654925706344
F-0.03467253714915319
F0.4
F-0.03467253714915319
tp131
sS'P1,22,1,A5,5'
p132
(F-0.047434526990912884
F-0.06119722073757117
F0.47000000000000003
F-0.06119722073757117
tp133
sS'P1,22,1,A5,7'
p134
(F-0.07389096739711021
F-0.08765366114376849
F0.54
F-0.08765366114376849
tp135
sS'P1,22,1,A5,9'
p136
(F-0.11295005807201058
F-0.10627177700348805
F0.5
F-0.10627177700348805
tp137
sS'P1,23,1,E5,0'
p138
(F0.02013422818791965
F0.012863534675617627
F0.79
F0.012863534675617627
tp139
sS'P1,3,3,G3,10'
p140
(F-0.06773667029379749
F-0.08269858541893338
F0.75
F-0.08269858541893338
tp141
sS'P1,30,1,C5,0'
p142
(F0.02418447694038255
F0.022778402699663636
F0.34
F0.022778402699663636
tp143
sS'P1,30,1,C5,2'
p144
(F0.021372328458944767
F0.019966254218225732
F0.39
F0.019966254218225732
tp145
sS'P1,30,1,F4,8'
p146
(F0.01274944567627497
F0.0077605321507766
F0.49
F0.0077605321507766
tp147
sS'P1,8,1,A5,1'
p148
(F0.030126849894291985
F-0.02325581395348797
F0.32
F-0.02325581395348797
tp149
sS'P1,24,3,A2,6'
p150
(F0.03143159006867102
F-0.04846804014791739
F0.6900000000000001
F-0.04846804014791739
tp151
sS'P1,29,1,C4,1'
p152
(F0.020174482006544037
F-0.25627044711014035
F0.8
F-0.25627044711014035
tp153
sS'P1,3,3,F4,0'
p154
(F0.0
F-0.5010493179433373
F0.64
F-0.5010493179433373
tp155
sS'P1,13,3,F3,8'
p156
(F0.04732458354366492
F0.03760726905603251
F0.62
F0.03760726905603251
tp157
sS'P1,13,3,F3,6'
p158
(F0.020642201834865426
F0.02574457344775367
F0.64
F0.02574457344775367
tp159
sS'P1,8,1,E5,4'
p160
(F0.019037546271813865
F-0.03424114225277622
F0.32
F-0.03424114225277622
tp161
sS'P1,8,1,E5,6'
p162
(F0.010840824960338669
F-0.04243786356425139
F0.32
F-0.04243786356425139
tp163
sS'P1,5,3,A4,4'
p164
(F-0.010937500000000044
F-0.010937499999999989
F0.53
F-0.010937499999999989
tp165
sS'P1,5,3,A4,0'
p166
(F-0.011718750000000333
F-0.010937499999999989
F0.61
F-0.010937499999999989
tp167
sS'P1,1,1,A4,1'
p168
(F0.0
F-0.3416666666666667
F0.64
F-0.3416666666666667
tp169
sS'P1,3,3,C4,3'
p170
(F-0.018181818181817522
F-0.019850402761795394
F0.73
F-0.019850402761795394
tp171
sS'P1,3,3,C4,5'
p172
(F-0.02128883774453444
F-0.022727272727273373
F0.77
F-0.022727272727273373
tp173
sS'P1,5,3,A4,8'
p174
(F-0.010937500000000044
F-0.01352395672333867
F0.51
F-0.01352395672333867
tp175
sS'P1,20,1,A5,4'
p176
(F-0.014230979748222516
F-0.2839276210750395
F0.81
F-0.2839276210750395
tp177
sS'P1,17,1,E-5,4'
p178
(F0.00889781859931138
F0.008036739380023472
F0.58
F0.008036739380023472
tp179
sS'P1,27,1,B-4,4'
p180
(F0.015969162995594602
F0.011563876651980554
F0.9400000000000001
F0.011563876651980554
tp181
sS'P1,27,1,B-4,0'
p182
(F0.005367686527106864
F0.2534889962426239
F0.97
F0.2534889962426239
tp183
sS'P1,26,1,F5,11'
p184
(F0.012506316321368893
F-0.04345629105609594
F0.81
F-0.04345629105609594
tp185
sS'P1,27,1,B-4,8'
p186
(F0.0005347593582887727
F-0.010962566844918586
F0.87
F-0.010962566844918586
tp187
sS'P1,4,1,C6,9'
p188
(F0.006138392857142794
F0.023995535714285587
F0.6
F0.023995535714285587
tp189
sS'P1,8,1,D5,9'
p190
(F0.007344940152339552
F-0.04026115342763864
F0.32
F-0.04026115342763864
tp191
sS'P1,4,1,C6,1'
p192
(F-0.02097625329815289
F-0.01767810026385197
F0.5700000000000001
F-0.01767810026385197
tp193
sS'P1,10,1,C4,4'
p194
(F-0.04656445201590087
F-0.39837837837837853
F0.64
F-0.39837837837837853
tp195
sS'P1,4,1,C6,3'
p196
(F-0.014379947229551049
F-0.011081794195250128
F0.71
F-0.011081794195250128
tp197
sS'P1,4,1,C6,5'
p198
(F-0.010937499999999989
F-0.010937499999999989
F0.73
F-0.010937499999999989
tp199
sS'P1,4,1,C6,7'
p200
(F-0.010937500000000044
F-0.010937500000000044
F0.66
F-0.010937500000000044
tp201
sS'P1,21,1,C5,4'
p202
(F-0.013631406761175802
F-0.00718309859155053
F0.73
F-0.00718309859155053
tp203
sS'P1,31,3,A3,3'
p204
(F-0.024015748031496087
F-0.0346456692913385
F0.89
F-0.0346456692913385
tp205
sS'P1,31,3,A3,5'
p206
(F-0.030652418447696506
F-0.024184476940387833
F0.37
F-0.024184476940387833
tp207
sS'P1,29,3,B-3,11'
p208
(F0.0036076964190258076
F-0.0005344735435616199
F0.7000000000000001
F-0.0005344735435616199
tp209
sS'P1,3,3,B-3,8'
p210
(F-0.0378128400435255
F-0.05277475516866148
F0.77
F-0.05277475516866148
tp211
sS'P1,16,3,G3,0'
p212
(F0.0026441036488630363
F-0.0044949762030669915
F0.78
F-0.0044949762030669915
tp213
sS'P1,31,1,F4,2'
p214
(F0.0568241469816273
F0.037120359955005205
F0.85
F0.037120359955005205
tp215
sS'P1,31,1,F4,4'
p216
(F0.030089988751402896
F0.02418447694037651
F0.85
F0.02418447694037651
tp217
sS'P1,20,3,E3,1'
p218
(F-0.02011494252873597
F-0.015051997810619222
F0.85
F-0.015051997810619222
tp219
sS'P1,20,3,E3,6'
p220
(F0.004105090311986137
F-0.054324028461960605
F0.8
F-0.054324028461960605
tp221
sS'P1,23,1,G5,5'
p222
(F-0.010555234239444267
F-0.009543088490455875
F0.5
F-0.009543088490455875
tp223
sS'P1,23,1,G5,7'
p224
(F-0.009687680740310789
F-0.008675534991322342
F0.5
F-0.008675534991322342
tp225
sS'P1,23,1,G5,3'
p226
(F-0.00279642058164864
F-0.010067114093950669
F0.5
F-0.010067114093950669
tp227
sS'P1,10,1,B4,6'
p228
(F0.027297297297296352
F0.027993779160186645
F0.86
F0.027993779160186645
tp229
sS'P1,33,3,C3,4'
p230
(F-0.014215418261352752
F-0.009373251259093218
F0.93
F-0.009373251259093218
tp231
sS'P1,2,1,B-4,8'
p232
(F-0.0055089192025184475
F-0.11385099685204636
F0.44
F-0.11385099685204636
tp233
sS'P1,33,3,C3,8'
p234
(F0.0039653929343907894
F-0.3280461427541449
F0.93
F-0.3280461427541449
tp235
sS'P1,2,1,B-4,6'
p236
(F-0.009863229879011115
F-0.11783271962125208
F0.43
F-0.11783271962125208
tp237
sS'P1,6,1,F5,7'
p238
(F-0.0007026419336728651
F0.018418201516793076
F0.49
F0.018418201516793076
tp239
sS'P1,6,1,F5,5'
p240
(F0.03161888701517618
F0.05143338954468635
F0.49
F0.05143338954468635
tp241
sS'P1,6,1,F5,3'
p242
(F0.04955580233203971
F0.06689151208544106
F0.51
F0.06689151208544106
tp243
sS'P1,6,1,F5,1'
p244
(F0.01651860077734657
F0.03303720155469314
F0.58
F0.03303720155469314
tp245
sS'P1,6,1,F5,9'
p246
(F-0.024647887323943546
F-0.014626218851570727
F0.49
F-0.014626218851570727
tp247
sS'P1,28,1,A4,2'
p248
(F-0.0017084282460172462
F-0.004555808656041882
F0.62
F-0.004555808656041882
tp249
sS'P1,4,3,A3,1'
p250
(F0.004485488126649395
F-0.3108179419525062
F0.64
F-0.3108179419525062
tp251
sS'P1,28,1,A4,6'
p252
(F-0.00894402769763214
F-0.008511252163874605
F0.61
F-0.008511252163874605
tp253
sS'P1,4,3,A3,3'
p254
(F0.010937500000000044
F-0.3067708333333333
F0.64
F-0.3067708333333333
tp255
sS'P1,3,1,F5,4'
p256
(F0.02285092491838956
F-0.3596300326441784
F0.75
F-0.3596300326441784
tp257
sS'P1,4,3,F3,0'
p258
(F-0.0021762785636558757
F-0.31741424802110807
F0.64
F-0.31741424802110807
tp259
sS'P1,9,3,A3,11'
p260
(F0.00119331742243578
F0.00056785917092561
F0.46
F0.00056785917092561
tp261
sS'P1,30,3,A3,4'
p262
(F-0.012935883014619232
F-0.2644124168514408
F0.6900000000000001
F-0.2644124168514408
tp263
sS'P1,31,1,G4,1'
p264
(F0.07900262467191599
F0.0568241469816273
F0.86
F0.0568241469816273
tp265
sS'P1,2,1,D5,4'
p266
(F-0.014860599684376669
F-0.12283008942661766
F0.37
F-0.12283008942661766
tp267
sS'P1,2,1,D5,2'
p268
(F-0.012672811059907696
F-0.12442396313364046
F0.37
F-0.12442396313364046
tp269
sS'P1,1,1,F4,2'
p270
(F0.0
F-0.3416666666666667
F0.64
F-0.3416666666666667
tp271
sS'P1,1,1,F4,0'
p272
(F0.208029197080292
F-0.1995133819951338
F0.64
F-0.1995133819951338
tp273
sS'P1,26,3,D3,3'
p274
(F-0.026567481402757942
F-0.35441020191285166
F0.78
F-0.35441020191285166
tp275
sS'P1,1,1,F4,4'
p276
(F0.0
F-0.3416666666666667
F0.64
F-0.3416666666666667
tp277
sS'P1,26,3,F3,2'
p278
(F-0.016471838469716782
F-0.344314558979807
F0.77
F-0.344314558979807
tp279
sS'P1,26,3,F3,5'
p280
(F-0.0689742294087955
F-0.4052551793835314
F0.79
F-0.4052551793835314
tp281
sS'P1,11,3,G2,9'
p282
(F0.07575757575757736
F-0.18963831867057457
F0.64
F-0.18963831867057457
tp283
sS'P1,14,1,D5,10'
p284
(F-0.004158004158002715
F-0.004677754677752777
F0.64
F-0.004677754677752777
tp285
sS'P1,20,3,F3,8'
p286
(F0.013837147418839834
F-0.0498935604044701
F0.72
F-0.0498935604044701
tp287
sS'P1,26,3,D3,1'
p288
(F-0.006376195536665019
F-0.33421891604676135
F0.9500000000000001
F-0.33421891604676135
tp289
sS'P1,12,1,C5,0'
p290
(F0.0
F0.5868686868686868
F0.77
F0.5868686868686868
tp291
sS'P1,20,3,F3,2'
p292
(F-0.015051997810619222
F-0.00998905309250242
F0.75
F-0.00998905309250242
tp293
sS'P1,29,3,G3,0'
p294
(F0.0032715376226826673
F0.0040894220283538285
F0.64
F0.0040894220283538285
tp295
sS'P1,20,3,F3,0'
p296
(F-0.022692109334706667
F0.11562671045429612
F0.93
F0.11562671045429612
tp297
sS'P1,20,3,F3,4'
p298
(F-0.004926108374385674
F-0.06335522714833089
F0.73
F-0.06335522714833089
tp299
sS'P1,2,1,C5,5'
p300
(F-0.012361914781693906
F-0.12033140452393476
F0.44
F-0.12033140452393476
tp301
sS'P1,12,3,E3,1'
p302
(F0.0
F-0.2515151515151515
F0.6900000000000001
F-0.2515151515151515
tp303
sS'P1,7,3,E4,10'
p304
(F-0.03866955110870823
F-0.03664142779881141
F0.58
F-0.03664142779881141
tp305
sS'P1,2,1,C5,3'
p306
(F-0.016897081413210335
F-0.1253287743293004
F0.37
F-0.1253287743293004
tp307
sS'P1,9,1,C5,2'
p308
(F0.041606367583211235
F-0.029908345393151903
F0.81
F-0.029908345393151903
tp309
sS'P1,9,1,C5,4'
p310
(F-0.006417910447760855
F-0.03552238805970087
F0.64
F-0.03552238805970087
tp311
sS'P1,6,1,D5,8'
p312
(F0.010834236186348867
F0.02085590465872167
F0.49
F0.02085590465872167
tp313
sS'P1,15,3,E-4,4'
p314
(F-0.021874999999999978
F-0.34647519582245356
F0.64
F-0.34647519582245356
tp315
sS'P1,32,1,G3,3'
p316
(F-0.04404542664211408
F-0.04112952731737585
F0.8300000000000001
F-0.04112952731737585
tp317
sS'P1,15,3,E-4,0'
p318
(F0.004815409309791317
F-0.04039593365436195
F0.8200000000000001
F-0.04039593365436195
tp319
sS'P1,15,3,E-4,2'
p320
(F-0.022471910112362492
F-0.346875
F0.64
F-0.346875
tp321
sS'P1,6,1,D5,0'
p322
(F0.0
F0.01651860077734657
F0.66
F0.01651860077734657
tp323
sS'P1,16,1,D5,4'
p324
(F0.02764736567553465
F-0.2720396452790822
F0.28
F-0.2720396452790822
tp325
sS'P1,26,1,F5,1'
p326
(F0.0013283740701371949
F-0.04463336875664359
F0.37
F-0.04463336875664359
tp327
sS'P1,28,1,G4,4'
p328
(F-0.008542141230075573
F-0.00822273514137234
F0.61
F-0.00822273514137234
tp329
sS'P1,26,1,F5,3'
p330
(F0.011424017003185072
F-0.0345377258235956
F0.41000000000000003
F-0.0345377258235956
tp331
sS'P1,26,1,F5,5'
p332
(F0.021519659936240942
F-0.024442082890536898
F0.48
F-0.024442082890536898
tp333
sS'P1,28,1,G4,0'
p334
(F-0.01871657754010214
F-0.022779043280183875
F0.78
F-0.022779043280183875
tp335
sS'P1,26,1,F5,7'
p336
(F0.03161530286929637
F-0.014346439957481527
F0.54
F-0.014346439957481527
tp337
sS'P1,26,1,F5,9'
p338
(F0.027412834765030814
F-0.028549772612433966
F0.6
F-0.028549772612433966
tp339
sS'P1,13,3,C4,0'
p340
(F0.0
F-0.0014985014985033351
F0.61
F-0.0014985014985033351
tp341
sS'P1,28,1,G4,8'
p342
(F-0.009232544720134461
F-0.008381502890174669
F0.61
F-0.008381502890174669
tp343
sS'P1,29,3,A3,10'
p344
(F0.006680919294493881
F0.0025387493319065646
F0.6900000000000001
F0.0025387493319065646
tp345
sS'P1,15,1,C5,8'
p346
(F0.02193211488250663
F0.022584856396868136
F0.53
F0.022584856396868136
tp347
sS'P1,15,1,C5,4'
p348
(F0.021875
F0.021874999999999978
F0.53
F0.021874999999999978
tp349
sS'P1,2,1,F5,0'
p350
(F0.0
F-0.008448540706605168
F0.64
F-0.008448540706605168
tp351
sS'P1,15,1,C5,0'
p352
(F-0.004677754677752777
F0.002006420545745624
F0.64
F0.002006420545745624
tp353
sS'P1,15,1,C5,2'
p354
(F0.008828250401282656
F0.015650080256819576
F0.64
F0.015650080256819576
tp355
sS'P1,24,3,D2,0'
p356
(F0.0
F-0.018844221105526554
F0.59
F-0.018844221105526554
tp357
sS'P1,33,3,G2,0'
p358
(F-0.012696493349453553
F-0.012165117550575977
F0.8200000000000001
F-0.012165117550575977
tp359
sS'P1,9,1,G4,9'
p360
(F-0.0017899761336505615
F-0.05131264916467648
F0.64
F-0.05131264916467648
tp361
sS'P1,9,1,G4,7'
p362
(F-0.004179104477610496
F-0.033412887828161875
F0.64
F-0.033412887828161875
tp363
sS'P1,22,3,B2,4'
p364
(F0.023228803716608376
F-0.3327526132404197
F0.96
F-0.3327526132404197
tp365
sS'P1,33,1,E4,5'
p366
(F-0.11175198269646547
F-0.4560201874549362
F0.86
F-0.4560201874549362
tp367
sS'P1,14,3,C4,4'
p368
(F0.0025987525987526037
F-0.32276507276507244
F0.8200000000000001
F-0.32276507276507244
tp369
sS'P1,29,3,G3,4'
p370
(F0.00872410032715378
F0.009541984732824915
F0.65
F0.009541984732824915
tp371
sS'P1,8,3,G3,1'
p372
(F-0.026427061310781763
F-0.27272727272727204
F0.64
F-0.27272727272727204
tp373
sS'P1,29,1,B-4,4'
p374
(F-0.014176663031622905
F-0.2947621592731164
F0.79
F-0.2947621592731164
tp375
sS'P1,27,3,F4,9'
p376
(F-0.0045454545454533535
F-0.008556149732617924
F0.61
F-0.008556149732617924
tp377
sS'P1,24,3,G2,4'
p378
(F-0.008040201005020564
F-0.0883518225039629
F0.67
F-0.0883518225039629
tp379
sS'P1,22,3,D3,5'
p380
(F-0.006387921022072085
F-0.3054587688734096
F0.77
F-0.3054587688734096
tp381
sS'P1,27,3,F4,1'
p382
(F-0.00845410628019111
F0.15056360708535188
F0.8
F0.15056360708535188
tp383
sS'P1,27,3,F4,3'
p384
(F-0.013553408480938223
F-0.016639828234022436
F0.79
F-0.016639828234022436
tp385
sS'P1,27,3,F4,5'
p386
(F-0.012665198237887115
F-0.009361233480179698
F0.7000000000000001
F-0.009361233480179698
tp387
sS'P1,27,3,F4,7'
p388
(F-0.0049559471365689944
F-0.0016519823788616605
F0.68
F-0.0016519823788616605
tp389
sS'P1,31,1,C4,9'
p390
(F-0.017429193899780704
F-0.03104575163398471
F0.85
F-0.03104575163398471
tp391
sS'P1,31,1,C4,7'
p392
(F0.010893246187363866
F-0.002723311546840218
F0.85
F-0.002723311546840218
tp393
sS'P1,10,3,A3,3'
p394
(F0.044324324324324274
F0.04297297297297259
F0.61
F0.04297297297297259
tp395
sS'P1,10,3,A3,5'
p396
(F0.041621621621620974
F0.040270270270269415
F0.61
F0.040270270270269415
tp397
sS'P1,18,3,E-4,4'
p398
(F0.010727865290602434
F0.006246605105919678
F0.74
F0.006246605105919678
tp399
sS'P1,30,1,G4,9'
p400
(F0.0077605321507766
F0.002771618625278194
F0.52
F0.002771618625278194
tp401
sS'P1,21,3,G3,1'
p402
(F0.010905125408943173
F-0.3004362050163564
F0.96
F-0.3004362050163564
tp403
sS'P1,24,1,G4,4'
p404
(F-0.0005282620179667408
F-0.26840408382590164
F0.64
F-0.26840408382590164
tp405
sS'P1,18,3,E-4,2'
p406
(F0.01703296703296886
F0.015209125475285142
F0.74
F0.015209125475285142
tp407
sS'P1,16,3,D3,5'
p408
(F-0.01983077736647254
F-0.023400317292437522
F0.84
F-0.023400317292437522
tp409
sS'P1,26,1,D5,4'
p410
(F0.016471838469713247
F-0.02948990435706461
F0.45
F-0.02948990435706461
tp411
sS'P1,25,1,A4,2'
p412
(F0.02550529355149191
F-0.26660250240615896
F0.64
F-0.26660250240615896
tp413
sS'P1,26,1,D5,0'
p414
(F-0.004069767441870931
F-0.04968119022316764
F0.37
F-0.04968119022316764
tp415
sS'P1,13,1,G5,3'
p416
(F-0.008094981111706812
F-0.2652700656234224
F0.8200000000000001
F-0.2652700656234224
tp417
sS'P1,29,3,B-3,5'
p418
(F0.010632497273719177
F0.011450381679390276
F0.67
F0.011450381679390276
tp419
sS'P1,9,3,B3,10'
p420
(F0.002983293556086841
F0.002386634844870228
F0.46
F0.002386634844870228
tp421
sS'P1,23,1,A4,10'
p422
(F-0.029574350469874278
F-0.039662797125485816
F0.79
F-0.039662797125485816
tp423
sS'P1,2,1,A4,9'
p424
(F-0.0036726128016791315
F-0.11201469045120704
F0.46
F-0.11201469045120704
tp425
sS'P1,21,1,D5,6'
p426
(F-0.037464788732396725
F-0.03056338028169381
F0.74
F-0.03056338028169381
tp427
sS'P1,19,1,C#5,5'
p428
(F0.005930892212481553
F-0.271273852501288
F0.64
F-0.271273852501288
tp429
sS'P1,19,1,C#5,3'
p430
(F0.06631016042780613
F-0.20267379679144581
F0.64
F-0.20267379679144581
tp431
sS'P1,19,1,C#5,1'
p432
(F0.09656428943258755
F-0.1785528370640288
F0.5
F-0.1785528370640288
tp433
sS'P1,8,3,B3,0'
p434
(F-0.03461330448891464
F-0.2801268498942916
F0.4
F-0.2801268498942916
tp435
sS'P1,17,1,C5,6'
p436
(F0.00602755453501802
F0.004931506849315055
F0.5700000000000001
F0.004931506849315055
tp437
sS'P1,23,3,C#3,2'
p438
(F0.011567379988432644
F-0.2883169462116826
F0.87
F-0.2883169462116826
tp439
sS'P1,23,3,C#3,5'
p440
(F-0.009673852957436502
F-0.31840796019900697
F0.72
F-0.31840796019900697
tp441
sS'P1,18,3,A3,10'
p442
(F-0.07516258129064413
F-0.0990495247623796
F0.76
F-0.0990495247623796
tp443
sS'P1,13,1,C5,4'
p444
(F-0.0007571933366984362
F-0.25845532559313444
F0.71
F-0.25845532559313444
tp445
sS'P1,26,3,B-3,4'
p446
(F-0.036663124335802655
F-0.3711470439615977
F0.79
F-0.3711470439615977
tp447
sS'P1,21,3,C3,4'
p448
(F0.004454342984409824
F-0.3028953229398653
F0.81
F-0.3028953229398653
tp449
sS'P1,17,3,G2,0'
p450
(F-0.05633802816901545
F-0.3633281168492438
F0.53
F-0.3633281168492438
tp451
sS'P1,18,1,D5,5'
p452
(F0.005752876438219978
F-0.27813906953476597
F0.64
F-0.27813906953476597
tp453
sS'P1,18,1,D5,2'
p454
(F-0.015384615384612998
F-0.28055404671374295
F0.48
F-0.28055404671374295
tp455
sS'P1,30,3,F3,5'
p456
(F-0.016075388026606574
F-0.26773835920177236
F0.64
F-0.26773835920177236
tp457
sS'P1,30,3,F3,2'
p458
(F-0.018560179977498814
F-0.266591676040494
F0.88
F-0.266591676040494
tp459
sS'P1,21,1,G5,2'
p460
(F-0.01090512540894123
F-0.012268266085058488
F0.51
F-0.012268266085058488
tp461
sS'P1,21,1,G5,0'
p462
(F-0.007982969664713346
F-0.009541984732823944
F0.49
F-0.009541984732823944
tp463
sS'P1,23,1,G5,9'
p464
(F-0.01948590381426271
F-0.029574350469874278
F0.5
F-0.029574350469874278
tp465
sS'P1,6,3,G4,10'
p466
(F-0.02871072589382423
F-0.03819068255687941
F0.56
F-0.03819068255687941
tp467
sS'P1,14,1,C6,0'
p468
(F-0.0383644623927305
F0.06173421300659554
F0.87
F0.06173421300659554
tp469
sS'P1,19,1,B-5,0'
p470
(F0.02082248828735035
F0.44638209266007334
F0.63
F0.44638209266007334
tp471
sS'P1,19,1,B-5,2'
p472
(F0.0529411764705881
F-0.2545454545454552
F0.38
F-0.2545454545454552
tp473
sS'P1,19,1,B-5,4'
p474
(F0.055183084063950595
F-0.22202166064981893
F0.33
F-0.22202166064981893
tp475
sS'P1,30,3,C3,1'
p476
(F-0.02137232845894066
F-0.2694038245219319
F0.86
F-0.2694038245219319
tp477
sS'P1,30,3,C3,3'
p478
(F-0.015748031496061077
F-0.2637795275590521
F0.85
F-0.2637795275590521
tp479
sS'P1,13,1,E5,1'
p480
(F0.002158661629789539
F-0.2388019427954658
F0.7000000000000001
F-0.2388019427954658
tp481
sS'P1,19,3,E3,10'
p482
(F-0.07452294997421272
F-0.08419288292934379
F0.64
F-0.08419288292934379
tp483
sS'P1,27,3,E-4,10'
p484
(F-0.007486631016040357
F-0.011497326203204872
F0.61
F-0.011497326203204872
tp485
sS'P1,31,3,E3,8'
p486
(F-0.01124859392577049
F-0.01252723311546769
F0.91
F-0.01252723311546769
tp487
sS'P1,24,3,C3,2'
p488
(F-0.036683417085424996
F-0.12487437185929362
F0.66
F-0.12487437185929362
tp489
sS'P1,18,1,B-4,1'
p490
(F-0.042857142857141706
F-0.30549450549450374
F0.41000000000000003
F-0.30549450549450374
tp491
sS'P1,2,3,C4,3'
p492
(F0.007345225603357815
F-0.38142707240293816
F0.64
F-0.38142707240293816
tp493
sS'P1,18,1,B-4,3'
p494
(F0.029060293318847408
F-0.23628462791961047
F0.54
F-0.23628462791961047
tp495
sS'P1,13,1,C5,2'
p496
(F0.08931462493254416
F-0.1516459794927112
F0.63
F-0.1516459794927112
tp497
sS'P1,13,1,C5,0'
p498
(F0.08641358641358432
F-0.17382617382617682
F0.53
F-0.17382617382617682
tp499
sS'P1,7,1,G4,1'
p500
(F0.08002148227712191
F-0.21374865735767912
F0.64
F-0.21374865735767912
tp501
sS'P1,5,1,G5,2'
p502
(F0.010937500000000044
F0.010937500000000044
F0.68
F0.010937500000000044
tp503
sS'P1,5,1,G5,6'
p504
(F0.010937500000000044
F0.010937500000000044
F0.53
F0.010937500000000044
tp505
sS'P1,18,1,G5,4'
p506
(F0.003501750875437725
F-0.28039019509754837
F0.6
F-0.28039019509754837
tp507
sS'P1,6,1,F5,11'
p508
(F-0.051191765980498016
F-0.04117009750812528
F0.49
F-0.04117009750812528
tp509
sS'P1,19,3,G3,0'
p510
(F-0.020010005002499498
F0.09877667881311836
F0.63
F0.09877667881311836
tp511
sS'P1,19,3,G3,2'
p512
(F-0.002342529932326698
F-0.009760541384695065
F0.6
F-0.009760541384695065
tp513
sS'P1,32,3,C3,8'
p514
(F-0.04746070133010838
F-0.03506650544135326
F0.33
F-0.03506650544135326
tp515
sS'P1,19,3,G3,4'
p516
(F-0.05153565851119157
F-0.05374331550802186
F0.61
F-0.05374331550802186
tp517
sS'P1,23,1,B4,6'
p518
(F-0.009543088490455875
F-0.008530942741467484
F0.79
F-0.008530942741467484
tp519
sS'P1,12,3,G3,3'
p520
(F0.0
F-0.25424575424575346
F0.64
F-0.25424575424575346
tp521
sS'P1,5,1,F5,8'
p522
(F0.01081916537867078
F0.008114374034002891
F0.53
F0.008114374034002891
tp523
sS'P1,19,3,G3,8'
p524
(F-0.057219251336900645
F-0.06485301701908167
F0.6900000000000001
F-0.06485301701908167
tp525
sS'P1,5,1,F5,4'
p526
(F0.0109375
F0.010937499999999989
F0.5700000000000001
F0.010937499999999989
tp527
sS'P1,30,1,A4,6'
p528
(F0.015748031496065074
F0.01434195725534615
F0.5
F0.01434195725534615
tp529
sS'P1,32,1,F3,4'
p530
(F-0.04235727440147652
F-0.3057894736842096
F0.81
F-0.3057894736842096
tp531
sS'P1,30,1,A4,4'
p532
(F0.018560179977502887
F0.017154105736783998
F0.45
F0.017154105736783998
tp533
sS'P1,5,1,F5,0'
p534
(F0.0109375
F0.010937499999999989
F0.6900000000000001
F0.010937499999999989
tp535
sS'P1,21,1,C5,10'
p536
(F0.02115812917594939
F0.02505567928730934
F0.78
F0.02505567928730934
tp537
sS'P1,32,3,B-2,7'
p538
(F-0.05105263157894291
F-0.046251511487303054
F0.78
F-0.046251511487303054
tp539
sS'P1,23,3,E3,3'
p540
(F0.0448235974551775
F-0.2550607287449378
F0.8200000000000001
F-0.2550607287449378
tp541
sS'P1,23,3,E3,1'
p542
(F-0.00447427293064423
F-0.3109619686800832
F0.96
F-0.3109619686800832
tp543
sS'P1,31,3,F3,7'
p544
(F-0.017716535433079272
F-0.01124859392577049
F0.85
F-0.01124859392577049
tp545
sS'P1,31,3,F3,9'
p546
(F-0.01252723311546769
F-0.01416122004357151
F0.38
F-0.01416122004357151
tp547
sS'P1,21,1,E5,8'
p548
(F-0.004507042253526161
F-0.000556792873049855
F0.78
F-0.000556792873049855
tp549
sS'P1,28,3,C4,10'
p550
(F0.010982658959534874
F-0.051734104046246454
F0.6900000000000001
F-0.051734104046246454
tp551
sS'P1,5,1,A5,11'
p552
(F0.002704791344667168
F0.0
F0.43
F0.0
tp553
sS'P1,16,1,B-4,2'
p554
(F0.012691697514542575
F-0.2842411422527762
F0.38
F-0.2842411422527762
tp555
sS'P1,16,1,B-4,0'
p556
(F-0.0026109660574364923
F-0.2995769434161818
F0.43
F-0.2995769434161818
tp557
sS'P1,16,3,A2,10'
p558
(F-0.04838288993218676
F-0.05529473135107066
F0.77
F-0.05529473135107066
tp559
sS'P1,7,1,B4,0'
p560
(F0.026852846401718606
F-0.2669172932330825
F0.68
F-0.2669172932330825
tp561
sS'P1,7,1,B4,3'
p562
(F0.034108937070333356
F-0.2628239026969854
F0.64
F-0.2628239026969854
tp563
sS'P1,31,1,D4,8'
p564
(F-0.002723311546840218
F-0.016339869281044306
F0.85
F-0.016339869281044306
tp565
sS'P1,27,3,E-4,6'
p566
(F-0.00825991189427655
F-0.0049559471365689944
F0.7000000000000001
F-0.0049559471365689944
tp567
sS'P1,7,3,E4,6'
p568
(F-0.03358011634056035
F-0.03714965626652533
F0.59
F-0.03714965626652533
tp569
sS'P1,27,3,E-4,2'
p570
(F-0.010466988727853954
F-0.013553408480938223
F0.86
F-0.013553408480938223
tp571
sS'P1,10,1,C5,5'
p572
(F0.025405405405404702
F0.027297297297296352
F0.86
F0.027297297297296352
tp573
sS'P1,31,1,D4,0'
p574
(F-0.008314855875829474
F-0.3199475065616798
F0.64
F-0.3199475065616798
tp575
sS'P1,19,3,E4,11'
p576
(F-0.08419288292934379
F-0.15368746776688857
F0.64
F-0.15368746776688857
tp577
sS'P1,33,3,A2,6'
p578
(F-0.004196978175713018
F0.0009792949076672386
F0.92
F0.0009792949076672386
tp579
sS'P1,4,1,B-5,6'
p580
(F-0.010937499999999989
F-0.010937500000000044
F0.64
F-0.010937500000000044
tp581
sS'P1,27,1,D5,11'
p582
(F-0.03288770053475587
F-0.044385026737963185
F0.78
F-0.044385026737963185
tp583
sS'P1,4,1,B-5,2'
p584
(F-0.01767810026385197
F-0.014379947229551049
F0.68
F-0.014379947229551049
tp585
sS'P1,3,1,F4,0'
p586
(F0.0
F-0.009090909090908761
F0.64
F-0.009090909090908761
tp587
sS'P1,15,1,A5,11'
p588
(F0.023890339425591156
F0.024854574299312544
F0.46
F0.024854574299312544
tp589
sS'P1,28,3,C4,2'
p590
(F0.01423690205011019
F-0.051252847380415134
F0.73
F-0.051252847380415134
tp591
sS'P1,22,1,A5,11'
p592
(F-0.09959349593496558
F-0.09291521486644305
F0.5
F-0.09291521486644305
tp593
sS'P1,25,3,A2,8'
p594
(F0.004069767441860422
F-0.05872093023256017
F0.66
F-0.05872093023256017
tp595
sS'P1,20,1,A4,1'
p596
(F-0.043513957307061424
F-0.30706075533661836
F0.56
F-0.30706075533661836
tp597
sS'P1,21,3,E3,5'
p598
(F0.04120267260579369
F-0.26614699331848146
F0.96
F-0.26614699331848146
tp599
sS'P1,26,1,E-5,6'
p600
(F0.026567481402768656
F-0.01939426142400924
F0.52
F-0.01939426142400924
tp601
sS'P1,26,1,E-5,2'
p602
(F0.006376195536661244
F-0.03958554729011954
F0.38
F-0.03958554729011954
tp603
sS'P1,21,3,E3,2'
p604
(F0.014084507042253449
F-0.2909859154929588
F0.84
F-0.2909859154929588
tp605
sS'P1,28,1,A4,10'
p606
(F-0.00867052023121645
F-0.007803468208096298
F0.63
F-0.007803468208096298
tp607
sS'P1,17,1,A4,10'
p608
(F-0.03273972602739905
F-0.04493150684931746
F0.68
F-0.04493150684931746
tp609
sS'P1,32,3,A2,10'
p610
(F-0.023881499395403405
F-0.011487303506648283
F0.78
F-0.011487303506648283
tp611
sS'P1,11,3,F3,7'
p612
(F0.014705882352943123
F0.014662756598240508
F0.5700000000000001
F0.014662756598240508
tp613
sS'P1,11,3,F3,5'
p614
(F0.006127450980392801
F0.009803921568628748
F0.61
F0.009803921568628748
tp615
sS'P1,31,1,E4,3'
p616
(F0.037120359955005205
F0.031214848143978846
F0.85
F0.031214848143978846
tp617
sS'P1,31,1,E4,5'
p618
(F0.02418447694037651
F0.018278965129350122
F0.85
F0.018278965129350122
tp619
sS'P1,32,3,B-2,9'
p620
(F-0.03506650544135326
F-0.022672309552598136
F0.73
F-0.022672309552598136
tp621
sS'P1,22,1,D5,8'
p622
(F-0.021378941742378532
F-0.016550522648085847
F0.79
F-0.016550522648085847
tp623
sS'P1,11,3,G3,8'
p624
(F0.014662756598240508
F-0.2820136852394911
F0.56
F-0.2820136852394911
tp625
sS'P1,9,3,C4,9'
p626
(F0.003579952267303621
F0.002983293556086841
F0.46
F0.002983293556086841
tp627
sS'P1,9,3,C4,7'
p628
(F0.0046268656716428325
F0.004176610978520294
F0.45
F0.004176610978520294
tp629
sS'P1,17,3,B-3,2'
p630
(F-0.008868022952531418
F-0.2342135476463832
F0.51
F-0.2342135476463832
tp631
sS'P1,11,3,G3,4'
p632
(F0.0024509803921568688
F0.006127450980392801
F0.61
F0.006127450980392801
tp633
sS'P1,17,1,E-5,2'
p634
(F0.033515910276472605
F0.010907003444316887
F0.58
F0.010907003444316887
tp635
sS'P1,31,3,G3,6'
p636
(F-0.024184476940387833
F-0.017716535433079272
F0.8200000000000001
F-0.017716535433079272
tp637
sS'P1,31,3,G3,4'
p638
(F-0.0346456692913385
F-0.030652418447696506
F0.89
F-0.030652418447696506
tp639
sS'P1,33,3,B-2,5'
p640
(F-0.009373251259093218
F-0.004196978175713018
F0.92
F-0.004196978175713018
tp641
sS'P1,33,3,B-2,7'
p642
(F0.0009792949076672386
F0.0039653929343907894
F0.93
F0.0039653929343907894
tp643
sS'P1,32,1,E4,6'
p644
(F0.048421052631582695
F0.058645707376058176
F0.97
F0.058645707376058176
tp645
sS'P1,15,1,A5,9'
p646
(F0.022584856396868136
F0.02323759791122959
F0.5
F0.02323759791122959
tp647
sS'P1,17,3,D4,4'
p648
(F-0.005166475315728114
F-0.24191780821917874
F0.53
F-0.24191780821917874
tp649
sS'P1,15,1,A5,5'
p650
(F0.021874999999999978
F0.021874999999999978
F0.53
F0.021874999999999978
tp651
sS'P1,22,1,B4,4'
p652
(F0.00160342063067879
F-0.012159273115979502
F0.71
F-0.012159273115979502
tp653
sS'P1,15,1,A5,3'
p654
(F0.015650080256819576
F0.021875
F0.55
F0.021875
tp655
sS'P1,17,1,D5,5'
p656
(F0.008036739380023472
F0.007175660160735564
F0.58
F0.007175660160735564
tp657
sS'P1,17,1,D5,3'
p658
(F0.009758897818599321
F0.00889781859931138
F0.58
F0.00889781859931138
tp659
sS'P1,25,1,F4,4'
p660
(F-0.0033686236766087285
F-0.2529069767441886
F0.64
F-0.2529069767441886
tp661
sS'P1,3,3,A3,7'
p662
(F-0.024165707710012474
F-0.0378128400435255
F0.77
F-0.0378128400435255
tp663
sS'P1,3,3,A3,9'
p664
(F-0.05277475516866148
F-0.06773667029379749
F0.76
F-0.06773667029379749
tp665
sS'P1,13,3,A3,4'
p666
(F0.01659471127900808
F0.036427415002700414
F0.64
F0.036427415002700414
tp667
sS'P1,13,3,A3,2'
p668
(F-0.0017482517482545479
F-0.001998001998005594
F0.64
F-0.001998001998005594
tp669
sS'P1,7,3,D4,4'
p670
(F-0.0268528464017177
F-0.03001057641459537
F0.59
F-0.03001057641459537
tp671
sS'P1,7,3,D4,0'
p672
(F-0.027085590465871556
F-0.02658431793770119
F0.89
F-0.02658431793770119
tp673
sS'P1,33,1,F4,3'
p674
(F0.09988808058198162
F-0.1583659764969214
F0.6
F-0.1583659764969214
tp675
sS'P1,33,1,F4,1'
p676
(F0.08337889557134581
F-0.1804264625478469
F0.54
F-0.1804264625478469
tp677
sS'P1,10,3,C4,1'
p678
(F0.024134014764338074
F0.03534923339011864
F0.6
F0.03534923339011864
tp679
sS'P1,7,3,D4,8'
p680
(F-0.04177683765203555
F-0.04069767441860503
F0.58
F-0.04069767441860503
tp681
sS'P1,17,1,C5,8'
p682
(F-0.008356164383562265
F-0.020547945205480644
F0.63
F-0.020547945205480644
tp683
sS'P1,9,3,G4,1'
p684
(F0.03605885190545044
F0.017607332368546946
F0.37
F0.017607332368546946
tp685
sS'P1,32,3,C3,0'
p686
(F0.025782688766114094
F-0.17955801104972485
F0.89
F-0.17955801104972485
tp687
sS'P1,32,3,C3,6'
p688
(F-0.029473684210522877
F-0.05105263157894291
F0.8200000000000001
F-0.05105263157894291
tp689
sS'P1,27,1,D5,7'
p690
(F0.004955947136558558
F0.0005347593582887727
F0.91
F0.0005347593582887727
tp691
sS'P1,34,1,C4,1'
p692
(F-0.003965392934386247
F1.3233597692862413
F0.64
F1.3233597692862413
tp693
sS'P1,23,3,A2,4'
p694
(F0.00829187396351573
F-0.30044223327805475
F0.76
F-0.30044223327805475
tp695
sS'P1,10,1,C5,7'
p696
(F-0.040000000000001146
F-0.2967858994297562
F0.86
F-0.2967858994297562
tp697
sS'P1,2,1,G4,10'
p698
(F-0.00183630640083976
F-0.11017838405036762
F0.64
F-0.11017838405036762
tp699
sS'P1,4,3,F4,4'
p700
(F0.011718749999999997
F-0.29296875000000006
F0.64
F-0.29296875000000006
tp701
sS'P1,22,1,F5,0'
p702
(F-0.007795100222711682
F-0.014446890478812757
F0.6
F-0.014446890478812757
tp703
sS'P1,22,1,F5,2'
p704
(F-0.02118877270225955
F-0.027930654925706344
F0.66
F-0.027930654925706344
tp705
sS'P1,25,3,C2,0'
p706
(F-0.008597528210646299
F0.013501483679528081
F0.66
F0.013501483679528081
tp707
sS'P1,15,1,A5,7'
p708
(F0.021874999999999978
F0.02193211488250663
F0.53
F0.02193211488250663
tp709
sS'P1,25,3,C3,1'
p710
(F0.014688427299706153
F-0.044213649851627124
F0.66
F-0.044213649851627124
tp711
sS'P1,16,3,E-3,2'
p712
(F-0.009122157588577151
F-0.012691697514542133
F0.84
F-0.012691697514542133
tp713
sS'P1,16,3,E-3,4'
p714
(F-0.01626123744050756
F-0.01983077736647254
F0.84
F-0.01983077736647254
tp715
sS'P1,13,3,G3,3'
p716
(F-0.001998001998005594
F0.01767404209390283
F0.64
F0.01767404209390283
tp717
sS'P1,5,3,B-4,10'
p718
(F-0.01622874806800656
F-0.018933539412674394
F0.62
F-0.018933539412674394
tp719
sS'P1,5,3,C5,11'
p720
(F-0.018933539412674394
F-0.02163833075734234
F0.68
F-0.02163833075734234
tp721
sS'P1,24,1,B-4,2'
p722
(F0.00845219228737449
F-0.26333861595351427
F0.5700000000000001
F-0.26333861595351427
tp723
sS'P1,13,3,G3,5'
p724
(F0.08931462493254416
F0.10914732865623655
F0.64
F0.10914732865623655
tp725
sS'P1,23,3,G3,0'
p726
(F-0.02090592334495711
F-0.32662192393735856
F0.96
F-0.32662192393735856
tp727
sS'P1,6,3,A4,1'
p728
(F-0.002359800111048832
F-0.005830094392003271
F0.75
F-0.005830094392003271
tp729
sS'P1,6,3,A4,3'
p730
(F-0.008189894503052075
F-0.011660188784006542
F0.46
F-0.011660188784006542
tp731
sS'P1,6,3,A4,5'
p732
(F-0.011101742551996224
F-0.011523327712199327
F0.46
F-0.011523327712199327
tp733
sS'P1,6,3,A4,7'
p734
(F-0.011944912872402513
F-0.012366498032605588
F0.46
F-0.012366498032605588
tp735
sS'P1,6,3,A4,9'
p736
(F-0.020314192849404
F-0.029794149512459178
F0.45
F-0.029794149512459178
tp737
sS'P1,5,3,C5,3'
p738
(F-0.010937500000000044
F-0.010937500000000044
F0.56
F-0.010937500000000044
tp739
sS'P1,5,3,C5,1'
p740
(F-0.010937499999999989
F-0.010937499999999989
F0.61
F-0.010937499999999989
tp741
sS'P1,5,3,C5,7'
p742
(F-0.010937500000000044
F-0.010937500000000044
F0.53
F-0.010937500000000044
tp743
sS'P1,5,3,C5,5'
p744
(F-0.010937499999999989
F-0.010937499999999989
F0.53
F-0.010937499999999989
tp745
sS'P1,19,3,F3,1'
p746
(F-0.011582509109838518
F-0.01900052056220697
F0.63
F-0.01900052056220697
tp747
sS'P1,5,3,C5,9'
p748
(F-0.01352395672333867
F-0.01622874806800656
F0.5700000000000001
F-0.01622874806800656
tp749
sS'P1,19,3,F3,6'
p750
(F-0.054545454545455674
F-0.05534759358288943
F0.65
F-0.05534759358288943
tp751
sS'P1,6,3,A4,11'
p752
(F-0.03819068255687941
F-0.04767063921993453
F0.8
F-0.04767063921993453
tp753
sS'P1,9,3,D4,6'
p754
(F0.005074626865672394
F0.0046268656716428325
F0.43
F0.0046268656716428325
tp755
sS'P1,9,3,D4,4'
p756
(F0.007164179104477622
F0.006716417910448136
F0.39
F0.006716417910448136
tp757
sS'P1,9,3,E4,5'
p758
(F0.006716417910448136
F0.00626865671641863
F0.4
F0.00626865671641863
tp759
sS'P1,4,3,C4,2'
p760
(F0.0109375
F-0.3067708333333333
F0.64
F-0.3067708333333333
tp761
sS'P1,4,3,C4,5'
p762
(F0.04743303571428559
F-0.2572544642857145
F0.64
F-0.2572544642857145
tp763
sS'P1,9,3,E4,3'
p764
(F0.054148576941629
F0.007164179104477622
F0.38
F0.007164179104477622
tp765
sS'P1,4,1,A5,0'
p766
(F0.002110817941952508
F0.005408970976253424
F0.5
F0.005408970976253424
tp767
sS'P1,25,3,B-2,2'
p768
(F0.05667655786350756
F-0.0022255192878257724
F0.66
F-0.0022255192878257724
tp769
sS'P1,4,1,A5,4'
p770
(F-0.011081794195250128
F-0.010937499999999989
F0.73
F-0.010937499999999989
tp771
sS'P1,4,1,A5,8'
p772
(F-0.010937500000000044
F0.006138392857142794
F0.6
F0.006138392857142794
tp773
sS'P1,17,1,G5,0'
p774
(F0.056338028169014
F0.057120500782471884
F0.59
F0.057120500782471884
tp775
sS'P1,4,1,B-5,10'
p776
(F0.023995535714285587
F0.04185267857142827
F0.64
F0.04185267857142827
tp777
sS'P1,5,1,G5,10'
p778
(F0.005409582689335002
F0.002704791344667168
F0.53
F0.002704791344667168
tp779
sS'P1,30,1,B-4,5'
p780
(F0.017154105736783998
F0.015748031496065074
F0.49
F0.015748031496065074
tp781
sS'P1,34,1,F4,2'
p782
(F-0.003965392934386247
F1.3961788031723266
F0.64
F1.3961788031723266
tp783
sS'P1,28,1,B-4,1'
p784
(F0.0011389521640072786
F-0.0017084282460172462
F0.73
F-0.0017084282460172462
tp785
sS'P1,28,1,B-4,3'
p786
(F-0.005694760820051048
F-0.008542141230075573
F0.61
F-0.008542141230075573
tp787
sS'P1,28,1,B-4,5'
p788
(F-0.009376803231389674
F-0.00894402769763214
F0.61
F-0.00894402769763214
tp789
sS'P1,28,1,B-4,7'
p790
(F-0.008511252163874605
F-0.00807847663011707
F0.61
F-0.00807847663011707
tp791
sS'P1,28,1,B-4,9'
p792
(F-0.008381502890174669
F-0.007514450867054601
F0.61
F-0.007514450867054601
tp793
sS'P1,11,1,B4,5'
p794
(F0.43255131964809634
F0.006141248720573152
F0.76
F0.006141248720573152
tp795
sS'P1,20,3,D4,9'
p796
(F0.01184140500266151
F0.009845662586483117
F0.64
F0.009845662586483117
tp797
sS'P1,21,3,B-3,0'
p798
(F0.008178844056706668
F-0.3031624863685929
F0.97
F-0.3031624863685929
tp799
sS'P1,9,1,A4,8'
p800
(F-0.003579952267302622
F-0.03281622911694415
F0.64
F-0.03281622911694415
tp801
sS'P1,3,1,A4,1'
p802
(F0.04545454545454575
F-0.33181818181818146
F0.77
F-0.33181818181818146
tp803
sS'P1,20,3,D4,3'
p804
(F-0.00998905309250242
F-0.004926108374385674
F0.64
F-0.004926108374385674
tp805
sS'P1,3,1,A4,3'
p806
(F0.021288837744533495
F-0.3544303797468361
F0.75
F-0.3544303797468361
tp807
sS'P1,28,3,D4,5'
p808
(F0.009088286208887408
F-0.05395268320830743
F0.72
F-0.05395268320830743
tp809
sS'P1,20,3,D4,7'
p810
(F0.009168035030102883
F0.013837147418839834
F0.64
F0.013837147418839834
tp811
sS'P1,20,3,D4,5'
p812
(F0.00013683634373251596
F0.005199781061849262
F0.64
F0.005199781061849262
tp813
sS'P1,27,3,D4,4'
p814
(F-0.015566290928601068
F-0.012665198237887115
F0.72
F-0.012665198237887115
tp815
sS'P1,9,3,F4,0'
p816
(F-0.01686615886833487
F-0.03340569223347847
F0.35000000000000003
F-0.03340569223347847
tp817
sS'P1,9,3,F4,2'
p818
(F0.1025084418716824
F0.054148576941629
F0.37
F0.054148576941629
tp819
sS'P1,24,3,G2,10'
p820
(F0.01316496507253806
F-0.06380977968834434
F0.67
F-0.06380977968834434
tp821
sS'P1,28,3,D4,9'
p822
(F0.010115606936414834
F-0.05260115606936644
F0.6900000000000001
F-0.05260115606936644
tp823
sS'P1,31,3,E3,10'
p824
(F-0.01416122004357151
F-0.015795206971675357
F0.86
F-0.015795206971675357
tp825
sS'P1,9,1,D5,1'
p826
(F0.08900144717800162
F0.001085383502169357
F0.84
F0.001085383502169357
tp827
sS'P1,3,3,E4,1'
p828
(F-0.009090909090908761
F-0.013636363636363114
F0.7000000000000001
F-0.013636363636363114
tp829
sS'P1,7,3,F4,3'
p830
(F-0.02712137486573507
F-0.0268528464017177
F0.62
F-0.0268528464017177
tp831
sS'P1,33,3,A2,1'
p832
(F-0.012165117550575977
F-0.012848551120834939
F0.8200000000000001
F-0.012848551120834939
tp833
sS'P1,33,1,B-3,0'
p834
(F0.011481683980317023
F-0.2523236741388757
F0.52
F-0.2523236741388757
tp835
sS'P1,11,3,D3,0'
p836
(F-0.00673924313115537
F-0.005338621110433678
F0.61
F-0.005338621110433678
tp837
sS'P1,26,1,E-5,10'
p838
(F0.019959575543199826
F-0.0360030318342649
F0.6900000000000001
F-0.0360030318342649
tp839
sS'P1,11,3,D3,2'
p840
(F-0.002745576571080932
F-0.00015253203172826968
F0.61
F-0.00015253203172826968
tp841
sS'P1,27,1,C5,10'
p842
(F-0.021390374331548445
F-0.03288770053475587
F0.84
F-0.03288770053475587
tp843
sS'P1,31,1,D4,6'
p844
(F0.017154105736774228
F0.010893246187363866
F0.85
F0.010893246187363866
tp845
sS'P1,33,1,A3,2'
p846
(F0.014549524342473433
F-0.2437045327364295
F0.56
F-0.2437045327364295
tp847
sS'P1,12,3,C3,0'
p848
(F-0.00562947799386132
F-0.25383828045036216
F0.65
F-0.25383828045036216
tp849
sS'P1,13,3,B3,1'
p850
(F-0.0004995004995023145
F-0.0007492507492534717
F0.54
F-0.0007492507492534717
tp851
sS'P1,20,3,D3,10'
p852
(F0.009845662586483117
F-0.0538850452368268
F0.74
F-0.0538850452368268
tp853
sS'P1,7,3,E4,2'
p854
(F-0.027389903329752496
F-0.02712137486573507
F0.64
F-0.02712137486573507
tp855
sS'P1,22,3,D3,2'
p856
(F-0.0016510731975848403
F-0.31667557455905837
F0.81
F-0.31667557455905837
tp857
sS'P1,12,3,C3,2'
p858
(F0.0
F-0.2515151515151516
F0.6900000000000001
F-0.2515151515151516
tp859
sS'P1,16,3,B-2,9'
p860
(F-0.04147104851330269
F-0.04838288993218676
F0.79
F-0.04838288993218676
tp861
sS'P1,16,3,B-2,7'
p862
(F-0.028027498677947738
F-0.034559207094418676
F0.8300000000000001
F-0.034559207094418676
tp863
sS'P1,31,3,D3,11'
p864
(F-0.015795206971675357
F-0.01742919389977915
F0.9
F-0.01742919389977915
tp865
sS'P1,12,3,C3,4'
p866
(F-0.006493506493504941
F-0.26073926073925846
F0.64
F-0.26073926073925846
tp867
sS'P1,24,1,F5,5'
p868
(F0.015314347125197969
F-0.2525523911875387
F0.64
F-0.2525523911875387
tp869
sS'P1,9,1,F4,10'
p870
(F-0.0011933174224328935
F-0.05071599045345887
F0.64
F-0.05071599045345887
tp871
sS'P1,24,1,F5,0'
p872
(F0.0
F-0.2829145728643206
F0.64
F-0.2829145728643206
tp873
sS'P1,27,3,D4,8'
p874
(F-0.0005506607929586238
F-0.0045454545454533535
F0.64
F-0.0045454545454533535
tp875
sS'P1,6,1,D5,4'
p876
(F0.011804384485666067
F0.03161888701517618
F0.51
F0.03161888701517618
tp877
sS'P1,16,1,G4,1'
p878
(F0.005023796932840052
F-0.2919090428344788
F0.63
F-0.2919090428344788
tp879
sS'P1,16,1,G4,3'
p880
(F0.020359598096245546
F-0.2765732416710731
F0.59
F-0.2765732416710731
tp881
sS'P1,24,3,B-2,8'
p882
(F0.0005373455131649614
F-0.07643739924771747
F0.7000000000000001
F-0.07643739924771747
tp883
sS'P1,16,1,G4,5'
p884
(F0.02842983828899248
F-0.2712571726656243
F0.28
F-0.2712571726656243
tp885
sS'P1,20,3,D4,11'
p886
(F0.006785524215009442
F0.004907306434024001
F0.64
F0.004907306434024001
tp887
sS'P1,33,3,F2,3'
p888
(F-0.013531984691093957
F-0.014215418261352752
F0.84
F-0.014215418261352752
tp889
sS'P1,25,3,F2,10'
p890
(F-0.09360465116279498
F-0.1563953488372155
F0.66
F-0.1563953488372155
tp891
sS'P1,18,3,B-3,7'
p892
(F-0.0038022813688232127
F-0.027388694347173198
F0.74
F-0.027388694347173198
tp893
sS'P1,18,3,B-3,9'
p894
(F-0.05127563781890865
F-0.07516258129064413
F0.74
F-0.07516258129064413
tp895
sS'P1,27,1,D5,1'
p896
(F0.04629629629629889
F0.13875469672571694
F0.97
F0.13875469672571694
tp897
sS'P1,27,1,D5,3'
p898
(F0.02616747181965251
F0.015969162995594602
F0.92
F0.015969162995594602
tp899
sS'P1,32,1,F4,5'
p900
(F0.045789473684213156
F0.048421052631582695
F1.06
F0.048421052631582695
tp901
sS'P1,27,1,D5,5'
p902
(F0.012665198237883646
F0.008259911894269556
F0.9400000000000001
F0.008259911894269556
tp903
sS'P1,32,1,F4,7'
p904
(F0.058645707376058176
F-0.14268440145102695
F0.58
F-0.14268440145102695
tp905
sS'P1,11,3,C3,3'
p906
(F-0.00015253203172826968
F0.0024509803921568688
F0.61
F0.0024509803921568688
tp907
sS'P1,27,1,D5,9'
p908
(F-0.010962566844918586
F-0.022459893048125956
F0.86
F-0.022459893048125956
tp909
sS'P1,29,3,A3,2'
p910
(F0.0059978189749191335
F0.006815703380590343
F0.64
F0.006815703380590343
tp911
sS'P1,6,3,F4,0'
p912
(F0.0
F-0.0034702942809544113
F0.86
F-0.0034702942809544113
tp913
sS'P1,6,3,F4,4'
p914
(F-0.011660188784006542
F-0.012225969645869195
F0.46
F-0.012225969645869195
tp915
sS'P1,6,3,F4,8'
p916
(F-0.011242270938732646
F-0.020314192849404
F0.46
F-0.020314192849404
tp917
sS'P1,18,3,G4,0'
p918
(F0.0
F-0.5010958904109614
F0.54
F-0.5010958904109614
tp919
sS'P1,28,3,D4,3'
p920
(F0.011389521640085554
F-0.05410022779043966
F0.71
F-0.05410022779043966
tp921
sS'P1,2,3,A3,1'
p922
(F0.01735928458705944
F-0.37112046291425566
F0.64
F-0.37112046291425566
tp923
sS'P1,28,3,D4,1'
p924
(F0.017084282460134714
F-0.048405466970390554
F0.75
F-0.048405466970390554
tp925
sS'P1,30,1,B-4,3'
p926
(F0.019966254218225732
F0.018560179977502887
F0.43
F0.018560179977502887
tp927
sS'P1,28,3,D4,7'
p928
(F0.008799769186385142
F-0.054241200230809694
F0.74
F-0.054241200230809694
tp929
sS'P1,7,3,F4,9'
p930
(F-0.04069767441860503
F-0.03866955110870823
F0.58
F-0.03866955110870823
tp931
sS'P1,7,3,F4,7'
p932
(F-0.038207297726070566
F-0.04177683765203555
F0.59
F-0.04177683765203555
tp933
sS'P1,7,3,F4,5'
p934
(F-0.03001057641459537
F-0.03358011634056035
F0.59
F-0.03358011634056035
tp935
sS'P1,10,3,E3,10'
p936
(F0.0037584240539144664
F-0.007776049766717863
F0.61
F-0.007776049766717863
tp937
sS'P1,7,3,F4,1'
p938
(F-0.02658431793770119
F-0.026315789473683737
F0.81
F-0.026315789473683737
tp939
sS'P1,21,3,G3,3'
p940
(F-0.014929577464791177
F-0.3200000000000034
F0.96
F-0.3200000000000034
tp941
sS'P1,34,1,A3,0'
p942
(F-0.003965392934386247
F1.3601297764960467
F0.64
F1.3601297764960467
tp943
sS'P1,23,1,D5,1'
p944
(F0.012863534675617627
F0.005592841163315598
F0.85
F0.005592841163315598
tp945
sS'P1,8,1,D5,7'
p946
(F0.007271285034373687
F-0.04600740349021637
F0.32
F-0.04600740349021637
tp947
sS'P1,26,3,B-2,0'
p948
(F0.003719447396386808
F-0.3241232731137095
F0.72
F-0.3241232731137095
tp949
sS'P1,11,3,E3,1'
p950
(F-0.005338621110433678
F-0.002745576571080932
F0.61
F-0.002745576571080932
tp951
sS'P1,11,3,E3,6'
p952
(F0.011029411764707175
F0.014705882352943123
F0.6
F0.014705882352943123
tp953
sS'P1,4,1,C6,11'
p954
(F0.04185267857142827
F0.05572916666666667
F0.64
F0.05572916666666667
tp955
sS'P1,18,3,F4,1'
p956
(F0.012087912087913377
F0.018131868131870066
F0.74
F0.018131868131870066
tp957
sS'P1,26,1,D5,8'
p958
(F0.0348660939868618
F-0.021096513390602978
F0.6
F-0.021096513390602978
tp959
sS'P1,29,1,E4,0'
p960
(F-0.00346820809249071
F-0.27971646673936706
F0.74
F-0.27971646673936706
tp961
sS'P1,29,1,E4,3'
p962
(F-0.011450381679388333
F-0.2878953107960728
F0.81
F-0.2878953107960728
tp963
sS'P1,24,1,D5,1'
p964
(F0.02562814070352004
F-0.2572864321608006
F0.64
F-0.2572864321608006
tp965
sS'P1,23,1,E5,2'
p966
(F0.004474272930653389
F-0.00279642058164864
F0.88
F-0.00279642058164864
tp967
sS'P1,24,1,D5,3'
p968
(F0.05995773903855994
F-0.21183306920232892
F0.98
F-0.21183306920232892
tp969
sS'P1,17,3,G3,1'
p970
(F0.009128847157015452
F-0.309337506520606
F0.55
F-0.309337506520606
tp971
sS'P1,14,1,B5,1'
p972
(F0.06550424128180765
F0.026625824693682576
F0.49
F0.026625824693682576
tp973
sS'P1,16,3,C3,6'
p974
(F-0.024457958751982756
F-0.028027498677947738
F0.8300000000000001
F-0.028027498677947738
tp975
sS'P1,28,1,B-4,11'
p976
(F-0.007803468208096298
F-0.006936416184976202
F0.63
F-0.006936416184976202
tp977
sS'P1,16,3,C3,8'
p978
(F-0.034559207094418676
F-0.04147104851330269
F0.8300000000000001
F-0.04147104851330269
tp979
sS'P1,6,3,G4,6'
p980
(F-0.011523327712199327
F-0.011944912872402513
F0.46
F-0.011944912872402513
tp981
sS'P1,6,3,G4,2'
p982
(F-0.005830094392003271
F-0.009300388672957682
F0.6
F-0.009300388672957682
tp983
sS'P1,32,3,F3,1'
p984
(F0.01074278698587916
F0.02716390423572479
F0.8200000000000001
F0.02716390423572479
tp985
sS'P1,25,3,G2,6'
p986
(F0.07603464870067567
F-0.019008662175165836
F0.66
F-0.019008662175165836
tp987
sS'P1,30,1,G4,7'
p988
(F0.01434195725534615
F0.01274944567627497
F0.5
F0.01274944567627497
tp989
sS'P1,21,1,B-5,9'
p990
(F-0.03730512249443091
F-0.033407572383070905
F0.46
F-0.033407572383070905
tp991
sS'P1,11,1,D4,4'
p992
(F-0.018382352941174074
F-0.2869012707722379
F0.65
F-0.2869012707722379
tp993
sS'P1,31,1,B-3,10'
p994
(F-0.03104575163398471
F-0.044662309368188824
F0.85
F-0.044662309368188824
tp995
sS'P1,14,3,C3,0'
p996
(F0.035815268614514485
F0.10603204524033727
F0.41000000000000003
F0.10603204524033727
tp997
sS'P1,16,3,D3,3'
p998
(F-0.012691697514542133
F-0.01626123744050756
F0.84
F-0.01626123744050756
tp999
sS'P1,25,1,E-5,5'
p1000
(F-0.062209302325586024
F-0.3110465116279142
F0.64
F-0.3110465116279142
tp1001
sS'P1,10,1,E4,0'
p1002
(F-0.000596658711215281
F-0.05976717773992066
F0.64
F-0.05976717773992066
tp1003
sS'P1,18,3,C4,6'
p1004
(F0.001765344921236922
F-0.002715915263445723
F0.74
F-0.002715915263445723
tp1005
sS'P1,18,3,C4,8'
p1006
(F-0.027388694347173198
F-0.05127563781890865
F0.74
F-0.05127563781890865
tp1007
sS'P1,10,1,E4,8'
p1008
(F-0.03343701399688925
F-0.2918610679108341
F0.84
F-0.2918610679108341
tp1009
sS'P1,21,1,F5,1'
p1010
(F-0.009541984732823944
F-0.01090512540894123
F0.49
F-0.01090512540894123
tp1011
sS'P1,29,1,G4,5'
p1012
(F-0.026456440406200765
F-0.3073222875467677
F0.76
F-0.3073222875467677
tp1013
sS'P1,21,1,B-5,7'
p1014
(F-0.04859154929577825
F-0.041690140845075274
F0.48
F-0.041690140845075274
tp1015
sS'P1,1,1,C5,3'
p1016
(F0.0
F-0.3416666666666667
F0.64
F-0.3416666666666667
tp1017
sS'P1,3,3,B-3,6'
p1018
(F-0.022727272727273373
F-0.024165707710012474
F0.77
F-0.024165707710012474
tp1019
sS'P1,25,3,C3,11'
p1020
(F-0.11337209302326245
F-0.17616279069768315
F0.58
F-0.17616279069768315
tp1021
sS'P1,6,1,E5,10'
p1022
(F-0.038461538461538214
F-0.028439869989165367
F0.49
F-0.028439869989165367
tp1023
sS'P1,14,3,G3,5'
p1024
(F-0.003638253638252764
F-0.3290020790020778
F0.64
F-0.3290020790020778
tp1025
sS'P1,14,3,G3,2'
p1026
(F0.03439011284255778
F-0.2850617947340139
F0.64
F-0.2850617947340139
tp1027
sS'P1,15,3,F#3,5'
p1028
(F-0.020626631853783606
F-0.34516971279373065
F0.64
F-0.34516971279373065
tp1029
sS'P1,27,1,C5,6'
p1030
(F0.008259911894269556
F0.0038546255506555216
F0.9400000000000001
F0.0038546255506555216
tp1031
sS'P1,15,3,F#3,3'
p1032
(F-0.021874999999999978
F-0.34687500000000004
F0.64
F-0.34687500000000004
tp1033
sS'P1,15,3,F#3,1'
p1034
(F-0.03611556982343639
F-0.3563402889245605
F0.64
F-0.3563402889245605
tp1035
sS'P1,27,1,C5,2'
p1036
(F0.03569511540526504
F0.025093934514231142
F0.93
F0.025093934514231142
tp1037
sS'P1,17,1,B-4,7'
p1038
(F0.004931506849315055
F-0.007260273972603343
F0.56
F-0.007260273972603343
tp1039
sS'P1,33,3,G2,2'
p1040
(F-0.012848551120834939
F-0.013531984691093957
F0.8200000000000001
F-0.013531984691093957
tp1041
sS'P1,17,1,B-4,9'
p1042
(F-0.020547945205480644
F-0.03273972602739905
F0.64
F-0.03273972602739905
tp1043
sS'P1,10,1,D4,3'
p1044
(F-0.035065303804657
F-0.09426462237365196
F0.64
F-0.09426462237365196
tp1045
sS'P1,5,1,A5,3'
p1046
(F0.010937500000000044
F0.0109375
F0.59
F0.0109375
tp1047
sS'P1,5,1,A5,1'
p1048
(F0.010937499999999989
F0.010937500000000044
F0.6900000000000001
F0.010937500000000044
tp1049
sS'P1,5,1,A5,7'
p1050
(F0.010937500000000044
F0.01081916537867078
F0.53
F0.01081916537867078
tp1051
sS'P1,5,1,A5,5'
p1052
(F0.010937499999999989
F0.010937500000000044
F0.61
F0.010937500000000044
tp1053
sS'P1,2,1,A4,7'
p1054
(F-0.007364544976328324
F-0.11568730325288568
F0.51
F-0.11568730325288568
tp1055
sS'P1,5,1,A5,9'
p1056
(F0.008114374034002891
F0.005409582689335002
F0.53
F0.005409582689335002
tp1057
sS'P1,29,3,A3,6'
p1058
(F0.011450381679390276
F0.012268266085061486
F0.68
F0.012268266085061486
tp1059
sS'P1,2,3,F3,2'
p1060
(F0.012887953708574318
F-0.37559179379274077
F0.64
F-0.37559179379274077
tp1061
sS'P1,2,3,F3,0'
p1062
(F0.03558627752176147
F-0.3558627752176138
F0.72
F-0.3558627752176138
tp1063
sS'P1,2,3,F3,4'
p1064
(F0.0005246589716682015
F-0.3882476390346278
F0.64
F-0.3882476390346278
tp1065
sS'P1,9,1,B4,5'
p1066
(F-0.005671641791044069
F-0.034776119402983974
F0.64
F-0.034776119402983974
tp1067
sS'P1,9,1,B4,3'
p1068
(F-0.005788712011579267
F-0.036268656716417574
F0.77
F-0.036268656716417574
tp1069
sS'P1,33,3,C2,9'
p1070
(F-0.11175198269646547
F-0.42790194664743797
F1.06
F-0.42790194664743797
tp1071
sS'P1,22,3,F3,1'
p1072
(F0.015134837644465549
F-0.29444138690149047
F0.96
F-0.29444138690149047
tp1073
sS'P1,22,3,F3,3'
p1074
(F-0.008818813468730646
F-0.3238909673971102
F0.96
F-0.3238909673971102
tp1075
sS'P1,8,3,C4,5'
p1076
(F0.018498367791077386
F-0.22034820457018478
F0.73
F-0.22034820457018478
tp1077
sS'P1,8,3,C4,2'
p1078
(F-0.01902748414376232
F-0.2652035959809623
F0.7000000000000001
F-0.2652035959809623
tp1079
sS'P1,32,3,D3,5'
p1080
(F-0.007894736842102956
F-0.029473684210522877
F0.8300000000000001
F-0.029473684210522877
tp1081
sS'P1,22,3,A3,0'
p1082
(F0.007705008255365938
F-0.3018712162905902
F0.96
F-0.3018712162905902
tp1083
sS'P1,32,3,D3,3'
p1084
(F0.036315789473684384
F0.014736842105264436
F0.75
F0.014736842105264436
tp1085
sS'P1,14,1,F5,6'
p1086
(F-0.010612573885007692
F-0.0026867275658243317
F0.64
F-0.0026867275658243317
tp1087
sS'P1,14,1,F5,8'
p1088
(F-0.0031185031185026746
F-0.003638253638252764
F0.64
F-0.003638253638252764
tp1089
sS'P1,25,3,F2,4'
p1090
(F-0.03145400593470771
F-0.12054860442733353
F0.66
F-0.12054860442733353
tp1091
sS'P1,28,3,C4,6'
p1092
(F0.008366993652627608
F-0.05467397576456723
F0.73
F-0.05467397576456723
tp1093
sS'P1,22,1,C#5,6'
p1094
(F-0.025921966862637758
F-0.039684660609295985
F0.79
F-0.039684660609295985
tp1095
sS'P1,20,1,F5,2'
p1096
(F0.004926108374384229
F-0.25862068965517276
F0.62
F-0.25862068965517276
tp1097
sS'P1,20,1,F5,5'
p1098
(F-0.04869611495476228
F-0.3187865886109621
F0.42
F-0.3187865886109621
tp1099
sS'P1,8,1,G5,2'
p1100
(F0.026427061310782762
F-0.026955602536997247
F0.32
F-0.026955602536997247
tp1101
sS'P1,8,1,G5,0'
p1102
(F0.0338266384778013
F-0.019556025369978636
F0.32
F-0.019556025369978636
tp1103
sS'P1,25,1,C5,3'
p1104
(F0.061597690086623746
F-0.23051010587102716
F0.64
F-0.23051010587102716
tp1105
sS'P1,25,1,C5,1'
p1106
(F0.07922848664689053
F-0.1643916913946497
F0.93
F-0.1643916913946497
tp1107
sS'P1,5,3,B-4,6'
p1108
(F-0.010937499999999989
F-0.010937500000000044
F0.53
F-0.010937500000000044
tp1109
sS'P1,5,3,B-4,2'
p1110
(F-0.010937499999999989
F-0.010937500000000044
F0.5700000000000001
F-0.010937500000000044
tp1111
sS'P1,32,1,B-3,1'
p1112
(F-0.03637200736648322
F-0.045733578882751647
F0.8300000000000001
F-0.045733578882751647
tp1113
sS'P1,8,1,C5,10'
p1114
(F0.009793253536452773
F-0.037812840043525364
F0.32
F-0.037812840043525364
tp1115
sS'P1,11,1,E4,2'
p1116
(F-0.002440512507628556
F-0.21691176470588164
F0.76
F-0.21691176470588164
tp1117
sS'P1,21,1,B-5,11'
p1118
(F-0.029510022271711067
F-0.025612472160351007
F0.55
F-0.025612472160351007
tp1119
sS'P1,24,3,D3,9'
p1120
(F-0.07213863514239777
F-0.14911337990328022
F0.67
F-0.14911337990328022
tp1121
sS'P1,24,3,D3,1'
p1122
(F-0.018844221105526554
F-0.10703517587939515
F0.59
F-0.10703517587939515
tp1123
sS'P1,24,3,D3,3'
p1124
(F-0.055527638190951634
F-0.14371859296482015
F0.66
F-0.14371859296482015
tp1125
sS'P1,24,3,D3,5'
p1126
(F-0.04926043317485587
F-0.1291600633914443
F0.68
F-0.1291600633914443
tp1127
sS'P1,24,3,D3,7'
p1128
(F-0.062202852614900994
F-0.1421024828314893
F0.6900000000000001
F-0.1421024828314893
tp1129
sS'P1,18,1,G4,0'
p1130
(F0.0
F0.012087912087913377
F0.54
F0.012087912087913377
tp1131
sS'P1,29,3,G3,8'
p1132
(F0.013896312132549412
F0.009754142169962066
F0.6900000000000001
F0.009754142169962066
tp1133
sS'P1,7,3,F4,11'
p1134
(F-0.03664142779881141
F-0.03461330448891464
F0.58
F-0.03461330448891464
tp1135
sS'P1,13,3,E3,7'
p1136
(F0.007571933366986374
F-0.0021453811206460505
F0.64
F-0.0021453811206460505
tp1137
sS'P1,13,3,E3,9'
p1138
(F-0.01287228672387658
F-0.02258960121150899
F0.58
F-0.02258960121150899
tp1139
sS'P1,30,3,E3,0'
p1140
(F-0.02298236237306439
F-0.27221597300337363
F0.72
F-0.27221597300337363
tp1141
sS'P1,23,1,G5,11'
p1142
(F-0.039662797125485816
F-0.04975124378109741
F0.5
F-0.04975124378109741
tp1143
sS'P1,24,3,D3,11'
p1144
(F-0.041241268135415954
F-0.11821601289629835
F0.66
F-0.11821601289629835
tp1145
sS'P1,17,1,F5,1'
p1146
(F0.057120500782471884
F0.033515910276472605
F0.58
F0.033515910276472605
tp1147
sS'P1,32,3,E3,2'
p1148
(F0.02716390423572479
F0.03736842105263176
F0.8200000000000001
F0.03736842105263176
tp1149
sS'P1,32,3,E3,4'
p1150
(F0.014736842105264436
F-0.00684210526315554
F0.33
F-0.00684210526315554
tp1151
sS'P1,9,1,A4,6'
p1152
(F-0.004925373134327282
F-0.0340298507462673
F0.64
F-0.0340298507462673
tp1153
sS'P1,29,1,G4,2'
p1154
(F-0.008724100327151874
F-0.28516902944383815
F0.81
F-0.28516902944383815
tp1155
sS'P1,17,3,G3,5'
p1156
(F0.021095890410957607
F-0.21589041095890604
F0.53
F-0.21589041095890604
tp1157
sS'P1,17,3,G3,3'
p1158
(F-0.03214695752009139
F-0.2566016073478752
F0.53
F-0.2566016073478752
tp1159
sS'P1,8,3,E4,4'
p1160
(F-0.003701745108407817
F-0.24265505984766045
F0.7000000000000001
F-0.24265505984766045
tp1161
sS'P1,13,3,D3,10'
p1162
(F-0.040762241292276236
F0.07822808671065007
F0.5700000000000001
F0.07822808671065007
tp1163
sS'P1,25,3,C3,3'
p1164
(F0.04169139465876226
F-0.01721068249257096
F0.66
F-0.01721068249257096
tp1165
sS'P1,7,1,D5,5'
p1166
(F0.015413737155218099
F-0.2769064359113047
F0.64
F-0.2769064359113047
tp1167
sS'P1,27,3,D4,0'
p1168
(F-0.005053057099552505
F0.10963499731615989
F0.9
F0.10963499731615989
tp1169
sS'P1,25,3,C3,7'
p1170
(F-0.04692011549566655
F-0.14196342637150805
F0.66
F-0.14196342637150805
tp1171
sS'P1,7,1,D5,2'
p1172
(F0.026441036488630366
F-0.27049180327868844
F0.64
F-0.27049180327868844
tp1173
sS'P1,25,3,C3,5'
p1174
(F0.00938402309913472
F-0.08565928777670695
F0.66
F-0.08565928777670695
tp1175
sS'P1,16,3,F3,1'
p1176
(F-0.005552617662612169
F-0.009122157588577151
F0.85
F-0.009122157588577151
tp1177
sS'P1,21,1,B-5,5'
p1178
(F-0.062394366197184054
F-0.055492957746481164
F0.46
F-0.055492957746481164
tp1179
sS'P1,25,3,C3,9'
p1180
(F-0.07267441860465301
F-0.1354651162790736
F0.66
F-0.1354651162790736
tp1181
sS'P1,15,1,A4,10'
p1182
(F0.02323759791122959
F0.023890339425591156
F0.48
F0.023890339425591156
tp1183
sS'P1,21,1,B-5,3'
p1184
(F-0.012268266085058488
F-0.013631406761175802
F0.55
F-0.013631406761175802
tp1185
sS'P1,30,1,D5,1'
p1186
(F0.022778402699663636
F0.021372328458944767
F0.34
F0.021372328458944767
tp1187
sS'P1,20,1,D5,0'
p1188
(F0.024083196496989565
F0.049534756431307336
F0.86
F0.049534756431307336
tp1189
sS'P1,20,1,D5,3'
p1190
(F0.030377668308702033
F-0.23316912972085502
F0.6900000000000001
F-0.23316912972085502
tp1191
sS'P1,30,1,F4,10'
p1192
(F0.002771618625278194
F-0.002217294900220268
F0.59
F-0.002217294900220268
tp1193
sS'P1,9,1,A4,0'
p1194
(F0.014954172696574983
F-0.30656054027978813
F0.33
F-0.30656054027978813
tp1195
sS'P1,34,3,F2,0'
p1196
(F0.01189617880317237
F1.0998558038933057
F0.98
F1.0998558038933057
tp1197
sS'P1,30,1,E-4,11'
p1198
(F-0.002217294900220268
F-0.007206208425718619
F0.6
F-0.007206208425718619
tp1199
sS'P1,27,3,F4,11'
p1200
(F-0.011497326203204872
F-0.015508021390369442
F0.61
F-0.015508021390369442
tp1201
sS'P1,10,1,F4,1'
p1202
(F-0.012067007382169398
F-0.07126632595116444
F0.64
F-0.07126632595116444
tp1203
ssS'tempo_deviations'
p1204
(dp1205
(I12
I1
tp1206
F0.9561793563399581
s(I15
I1
tp1207
F0.9860599612255818
s(I25
I1
tp1208
F0.911085238475998
s(I27
I2
tp1209
F1.0124252008305488
s(I32
I2
tp1210
F1.1446403419305449
s(I4
I0
tp1211
F0.999068667838057
s(I9
I0
tp1212
F0.9132827426691333
s(I30
I0
tp1213
F1.0648116566665493
s(I17
I2
tp1214
F1.0373891098921164
s(I14
I1
tp1215
F1.0173214000822772
s(I24
I1
tp1216
F1.0001242078991581
s(I1
I1
tp1217
F0.9860599612255818
s(I3
I2
tp1218
F1.0300517549255264
s(I27
I1
tp1219
F1.042530355480784
s(I8
I2
tp1220
F1.0300517549255264
s(I6
I0
tp1221
F1.0512132845936266
s(I11
I0
tp1222
F1.155116000947598
s(I16
I0
tp1223
F1.0011819807261333
s(I14
I2
tp1224
F0.984009940516175
s(I26
I1
tp1225
F1.0059697797838136
s(I3
I1
tp1226
F1.089318254058179
s(I29
I1
tp1227
F1.032298323638561
s(I34
I3
tp1228
F0.6824928354553446
s(I31
I2
tp1229
F1.0311738156607422
s(I13
I0
tp1230
F0.9456718908856695
s(I18
I0
tp1231
F1.0402390799742427
s(I21
I2
tp1232
F1.0541398249182223
s(I2
I1
tp1233
F0.9959153737785991
s(I26
I2
tp1234
F0.9566625192284504
s(I28
I1
tp1235
F1.0924611226503893
s(I5
I1
tp1236
F0.9860599612255818
s(I34
I4
tp1237
F0.6824928354553446
s(I7
I2
tp1238
F1.0239238104668003
s(I31
I1
tp1239
F1.0648116566665329
s(I12
I2
tp1240
F0.9456718908856758
s(I15
I0
tp1241
F1.012966894356935
s(I20
I0
tp1242
F1.0362534896295097
s(I25
I0
tp1243
F1.123581676886135
s(I2
I2
tp1244
F0.9933027940992215
s(I4
I1
tp1245
F0.9860599612255818
s(I33
I2
tp1246
F0.6824928354553446
s(I30
I1
tp1247
F1.0648116566665493
s(I7
I1
tp1248
F1.0011819807261333
s(I17
I1
tp1249
F1.0868169492268192
s(I19
I2
tp1250
F0.9763976923945955
s(I24
I2
tp1251
F1.0173214000822697
s(I1
I0
tp1252
F0.5758014372120186
s(I22
I0
tp1253
F1.0419565908382524
s(I27
I0
tp1254
F1.0162292676076938
s(I32
I0
tp1255
F1.1622069524574037
s(I9
I2
tp1256
F1.1296152300436282
s(I6
I1
tp1257
F1.0642131116093936
s(I30
I2
tp1258
F1.0494651472023953
s(I16
I1
tp1259
F1.0011819807261333
s(I19
I1
tp1260
F1.0124252008305414
s(I3
I0
tp1261
F1.0757017758824536
s(I8
I0
tp1262
F1.0006528147743756
s(I29
I0
tp1263
F1.032298323638561
s(I34
I0
tp1264
F0.6824928354553446
s(I6
I2
tp1265
F1.025587825326716
s(I18
I1
tp1266
F1.0283732349555206
s(I21
I1
tp1267
F1.0666113383397788
s(I23
I2
tp1268
F1.0465644696258216
s(I28
I2
tp1269
F1.0943555639035303
s(I5
I0
tp1270
F0.9860599612255818
s(I10
I0
tp1271
F1.0750909287638362
s(I31
I0
tp1272
F0.9938242128887753
s(I13
I2
tp1273
F0.9556966812484189
s(I18
I2
tp1274
F0.9470911083307256
s(I20
I1
tp1275
F1.0362534896295097
s(I23
I1
tp1276
F1.0949885052360446
s(I4
I2
tp1277
F1.0564928155988373
s(I33
I1
tp1278
F1.0594488671254163
s(I7
I0
tp1279
F1.0167750405763258
s(I12
I0
tp1280
F0.9689023160456025
s(I17
I0
tp1281
F0.9876030910553544
s(I25
I2
tp1282
F1.1007180962518006
s(I22
I1
tp1283
F1.0118840863458725
s(I32
I1
tp1284
F0.9964395397648032
s(I9
I1
tp1285
F1.1302896271958924
s(I11
I2
tp1286
F0.9253348609741554
s(I16
I2
tp1287
F0.9876030910553544
s(I14
I0
tp1288
F0.8921937443699861
s(I19
I0
tp1289
F0.9855466556757512
s(I24
I0
tp1290
F0.9513744349513195
s(I1
I2
tp1291
F0.9860599612255818
s(I22
I2
tp1292
F1.099439678021544
s(I8
I1
tp1293
F1.0011819807261333
s(I34
I1
tp1294
F0.6824928354553446
s(I11
I1
tp1295
F1.1600705426183344
s(I21
I0
tp1296
F1.032298323638561
s(I26
I0
tp1297
F1.005969779783799
s(I29
I2
tp1298
F1.011884086345865
s(I10
I1
tp1299
F1.0233703381368189
s(I34
I2
tp1300
F0.6824928354553446
s(I13
I1
tp1301
F1.0217135054253235
s(I15
I2
tp1302
F0.9886345303149483
s(I20
I2
tp1303
F1.0075759050309316
s(I2
I0
tp1304
F0.9693984257824462
s(I23
I0
tp1305
F1.0588563342019768
s(I28
I0
tp1306
F1.0781521216133845
s(I33
I0
tp1307
F1.035120352954129
s(I5
I2
tp1308
F0.9753916154317958
s(I10
I2
tp1309
F0.9814593704267073
ssS'measure_lengths'
p1310
(dp1311
I1
I3
sI2
I3
sI3
I3
sI4
I3
sI5
I3
sI6
I3
sI7
I3
sI8
I3
sI9
I3
sI10
I3
sI11
I3
sI12
I3
sI13
I3
sI14
I3
sI15
I3
sI16
I3
sI17
I3
sI18
I3
sI19
I3
sI20
I3
sI21
I3
sI22
I3
sI23
I3
sI24
I3
sI25
I3
sI26
I3
sI27
I3
sI28
I3
sI29
I3
sI30
I3
sI31
I3
sI32
I3
sI33
I3
sI34
I5
ss.