(dp0
S'init-silence'
p1
F0.9177083333333333
sS'basedynamics'
p2
F100.0
sS'tempo'
p3
F153.1334269515867
sS'target'
p4
Vcho-wlz010-paderewski-p073-074-ashke.xml
p5
sS'note_deviations'
p6
(dp7
S'P1,56,1,C6,0'
p8
(F0.006896551724137932
F0.04482758620689653
F0.51
F0.04482758620689653
tp9
sS'P1,3,1,C#5,3'
p10
(F-0.0015290519877678155
F0.19655172413793123
F0.52
F0.19655172413793123
tp11
sS'P1,54,3,B3,5'
p12
(F0.0
F-0.003048780487810432
F0.46
F-0.003048780487810432
tp13
sS'P1,9,3,B3,2'
p14
(F0.0
F-0.7999999999999993
F0.34
F-0.7999999999999993
tp15
sS'P1,54,3,G#3,1'
p16
(F0.0
F-0.02791878172587925
F0.46
F-0.02791878172587925
tp17
sS'P1,88,3,A#3,5'
p18
(F0.0
F-0.07499999999998685
F0.28
F-0.07499999999998685
tp19
sS'P1,83,3,C#4,5'
p20
(F0.0
F-0.8011527377521603
F0.47000000000000003
F-0.8011527377521603
tp21
sS'P1,9,3,B3,5'
p22
(F0.0
F-0.799457994579946
F0.34
F-0.799457994579946
tp23
sS'P1,13,1,F#6,1'
p24
(F3.3306690738754696e-16
F0.23123123123123077
F0.59
F0.23123123123123077
tp25
sS'P1,86,1,E#5,1'
p26
(F0.0
F0.19637462235649603
F0.56
F0.19637462235649603
tp27
sS'P1,1,3,F#3,1'
p28
(F0.0
F-0.7321937321937321
F0.31
F-0.7321937321937321
tp29
sS'P1,44,3,D3,0'
p30
(F0.0
F0.00303030303030303
F0.39
F0.00303030303030303
tp31
sS'P1,14,1,E5,5'
p32
(F-0.0014326647564466555
F0.23249999999999937
F0.55
F0.23249999999999937
tp33
sS'P1,78,1,F#5,1'
p34
(F0.0
F0.19438444924405973
F0.81
F0.19438444924405973
tp35
sS'P1,1,3,F#3,4'
p36
(F0.0
F-0.7329376854599408
F0.31
F-0.7329376854599408
tp37
sS'P1,57,1,B4,5'
p38
(F0.0013774104683234034
F-0.07162534435260992
F0.41000000000000003
F-0.07162534435260992
tp39
sS'P1,22,1,D6,0'
p40
(F0.0
F0.0
F0.63
F0.0
tp41
sS'P1,2,3,C#3,0'
p42
(F0.0
F1.3333333333333333
F0.39
F1.3333333333333333
tp43
sS'P1,22,1,D6,2'
p44
(F0.0
F-0.0029411764705815635
F0.62
F-0.0029411764705815635
tp45
sS'P1,84,1,B4,0'
p46
(F0.0
F0.0
F0.41000000000000003
F0.0
tp47
sS'P1,4,1,F#5,1'
p48
(F0.0
F0.16666666666666563
F0.52
F0.16666666666666563
tp49
sS'P1,43,3,A2,0'
p50
(F0.0
F0.0
F0.39
F0.0
tp51
sS'P1,50,3,C#3,0'
p52
(F0.0
F0.3761061946902613
F0.32
F0.3761061946902613
tp53
sS'P1,14,1,A5,0'
p54
(F0.0
F0.23441734417343774
F0.73
F0.23441734417343774
tp55
sS'P1,29,1,D6,2'
p56
(F-0.007712082262213205
F0.2543859649122746
F0.8200000000000001
F0.2543859649122746
tp57
sS'P1,72,3,F#3,2'
p58
(F0.0
F-0.06743737957609319
F0.22
F-0.06743737957609319
tp59
sS'P1,48,3,E4,2'
p60
(F0.0
F-0.002008032128508641
F0.29
F-0.002008032128508641
tp61
sS'P1,72,3,F#3,1'
p62
(F0.0
F-0.2450980392156813
F0.35000000000000003
F-0.2450980392156813
tp63
sS'P1,67,3,A2,0'
p64
(F0.0
F0.0
F0.33
F0.0
tp65
sS'P1,72,3,F#3,5'
p66
(F0.0
F-0.05639097744362187
F0.22
F-0.05639097744362187
tp67
sS'P1,63,3,A#3,2'
p68
(F0.0
F-0.8725099601593644
F0.3
F-0.8725099601593644
tp69
sS'P1,25,1,D5,0'
p70
(F0.0
F-2.7755575615628914e-15
F0.61
F-2.7755575615628914e-15
tp71
sS'P1,30,1,A5,0'
p72
(F0.0
F0.07101449275362315
F0.84
F0.07101449275362315
tp73
sS'P1,83,3,C#4,2'
p74
(F0.0
F-0.8011527377521603
F0.47000000000000003
F-0.8011527377521603
tp75
sS'P1,25,1,D5,4'
p76
(F0.0
F-0.0016611295681048244
F0.75
F-0.0016611295681048244
tp77
sS'P1,18,3,C#3,0'
p78
(F0.0
F-0.19906323185011787
F0.4
F-0.19906323185011787
tp79
sS'P1,71,1,F#5,0'
p80
(F0.0
F-0.001094091903712957
F0.79
F-0.001094091903712957
tp81
sS'P1,76,1,E5,0'
p82
(F0.0
F0.0015673981191279829
F0.52
F0.0015673981191279829
tp83
sS'P1,66,3,F#3,4'
p84
(F0.0
F-0.8217522658610267
F0.28
F-0.8217522658610267
tp85
sS'P1,75,3,C#4,2'
p86
(F0.0
F-0.7986348122866844
F0.45
F-0.7986348122866844
tp87
sS'P1,93,3,F#3,4'
p88
(F0.0
F0.0
F0.5
F0.0
tp89
sS'P1,53,3,B2,0'
p90
(F0.0
F1.3333333333333333
F0.46
F1.3333333333333333
tp91
sS'P1,30,3,C#4,2'
p92
(F0.0
F-0.14905933429811746
F0.3
F-0.14905933429811746
tp93
sS'P1,45,3,C#3,0'
p94
(F0.0
F-0.0033003300329943475
F0.39
F-0.0033003300329943475
tp95
sS'P1,31,1,F#4,5'
p96
(F-0.0011655011654995717
F0.06016597510373467
F0.56
F0.06016597510373467
tp97
sS'P1,20,1,B4,0'
p98
(F0.0
F0.0031645569620253255
F0.35000000000000003
F0.0031645569620253255
tp99
sS'P1,1,3,B2,0'
p100
(F0.0
F-0.5662431941923776
F0.33
F-0.5662431941923776
tp101
sS'P1,54,3,G#3,4'
p102
(F0.0
F-0.003048780487810432
F0.46
F-0.003048780487810432
tp103
sS'P1,68,3,D4,2'
p104
(F0.0
F-0.8217821782178202
F0.37
F-0.8217821782178202
tp105
sS'P1,79,1,E5,1'
p106
(F3.774758283725532e-15
F0.21089630931458667
F0.56
F0.21089630931458667
tp107
sS'P1,93,3,D4,3'
p108
(F0.0
F-0.04999999999997451
F0.5
F-0.04999999999997451
tp109
sS'P1,7,3,B3,5'
p110
(F0.0
F-0.045576407506702665
F0.32
F-0.045576407506702665
tp111
sS'P1,16,1,C#5,5'
p112
(F0.0
F-0.06666666666666665
F0.4
F-0.06666666666666665
tp113
sS'P1,44,1,B4,3'
p114
(F0.032507739938081204
F-0.06811145510835781
F0.61
F-0.06811145510835781
tp115
sS'P1,90,3,F#3,1'
p116
(F0.0
F-0.014619883040904225
F0.39
F-0.014619883040904225
tp117
sS'P1,90,3,F#3,4'
p118
(F0.0
F-0.0165289256198643
F0.39
F-0.0165289256198643
tp119
sS'P1,7,3,B3,2'
p120
(F0.0
F-0.04265402843601873
F0.32
F-0.04265402843601873
tp121
sS'P1,30,1,E5,5'
p122
(F-0.49855282199710566
F-0.4283646888567285
F0.7000000000000001
F-0.4283646888567285
tp123
sS'P1,3,1,G5,1'
p124
(F5.551115123125783e-16
F0.19877675840978581
F0.52
F0.19877675840978581
tp125
sS'P1,21,3,B2,0'
p126
(F0.0
F1.6332518337408315
F0.4
F1.6332518337408315
tp127
sS'P1,58,1,G5,1'
p128
(F0.0
F0.1335403726708101
F0.62
F0.1335403726708101
tp129
sS'P1,53,3,F#3,4'
p130
(F0.0
F0.0026041666666666297
F0.46
F0.0026041666666666297
tp131
sS'P1,52,3,B2,0'
p132
(F0.0
F1.335064935064931
F0.39
F1.335064935064931
tp133
sS'P1,47,1,E5,1'
p134
(F0.0
F0.3175122749590851
F0.56
F0.3175122749590851
tp135
sS'P1,41,3,A#3,6'
p136
(F0.0
F0.0
F0.39
F0.0
tp137
sS'P1,77,1,C#5,2'
p138
(F0.0
F0.2152103559870424
F0.7000000000000001
F0.2152103559870424
tp139
sS'P1,8,1,B5,1'
p140
(F0.0014662756598237126
F0.1341463414634146
F0.63
F0.1341463414634146
tp141
sS'P1,93,1,C#6,1'
p142
(F-5.773159728050814e-15
F0.1264705882352975
F0.7000000000000001
F0.1264705882352975
tp143
sS'P1,66,3,F#3,1'
p144
(F0.0
F-0.8227513227513215
F0.28
F-0.8227513227513215
tp145
sS'P1,78,3,F#4,6'
p146
(F0.0
F0.0
F0.65
F0.0
tp147
sS'P1,43,1,B4,2'
p148
(F0.0
F0.2331378299120157
F0.61
F0.2331378299120157
tp149
sS'P1,80,1,D6,0'
p150
(F0.0
F0.2663755458515177
F0.53
F0.2663755458515177
tp151
sS'P1,71,3,E4,6'
p152
(F0.0
F0.0
F0.31
F0.0
tp153
sS'P1,19,3,E4,6'
p154
(F0.0
F-0.7784810126582272
F0.47000000000000003
F-0.7784810126582272
tp155
sS'P1,71,3,E4,3'
p156
(F0.0
F-0.037199124726463695
F0.46
F-0.037199124726463695
tp157
sS'P1,19,3,E4,3'
p158
(F0.0
F-0.778816199376948
F0.47000000000000003
F-0.778816199376948
tp159
sS'P1,33,3,E4,3'
p160
(F0.0
F-0.7783933518005535
F0.24
F-0.7783933518005535
tp161
sS'P1,12,3,B2,0'
p162
(F0.0
F-0.6000000000000005
F0.42
F-0.6000000000000005
tp163
sS'P1,94,1,E5,4'
p164
(F0.0
F0.2578692493946614
F0.7000000000000001
F0.2578692493946614
tp165
sS'P1,33,3,E4,6'
p166
(F0.0
F-0.777777777777777
F0.24
F-0.777777777777777
tp167
sS'P1,52,3,D4,3'
p168
(F0.0
F-0.052219321148823994
F0.39
F-0.052219321148823994
tp169
sS'P1,72,1,A#4,0'
p170
(F0.0
F0.0009633911368094328
F0.47000000000000003
F0.0009633911368094328
tp171
sS'P1,55,3,E4,6'
p172
(F0.0
F-0.00551470588237124
F0.34
F-0.00551470588237124
tp173
sS'P1,38,3,D3,0'
p174
(F0.0
F0.0
F0.39
F0.0
tp175
sS'P1,52,3,D4,6'
p176
(F0.0
F0.0
F0.39
F0.0
tp177
sS'P1,55,3,E4,3'
p178
(F0.0
F-0.03854875283445525
F0.34
F-0.03854875283445525
tp179
sS'P1,38,1,C#5,2'
p180
(F0.0
F0.11983471074380636
F0.6
F0.11983471074380636
tp181
sS'P1,37,1,A4,1'
p182
(F8.326672684688674e-15
F0.1402985074626856
F0.7000000000000001
F0.1402985074626856
tp183
sS'P1,49,3,B2,0'
p184
(F0.0
F0.0
F0.29
F0.0
tp185
sS'P1,14,1,G5,1'
p186
(F0.0013550135501327887
F0.23415977961432682
F0.73
F0.23415977961432682
tp187
sS'P1,61,3,F#3,1'
p188
(F0.00920245398772996
F-0.024539877300624346
F0.32
F-0.024539877300624346
tp189
sS'P1,66,3,D3,0'
p190
(F0.0
F0.002645502645502665
F0.27
F0.002645502645502665
tp191
sS'P1,73,1,E5,3'
p192
(F7.438494264988549e-15
F0.3654822335025288
F0.68
F0.3654822335025288
tp193
sS'P1,75,1,B4,2'
p194
(F0.0
F0.16568914956011027
F0.59
F0.16568914956011027
tp195
sS'P1,52,1,B4,0'
p196
(F0.0
F0.0
F0.39
F0.0
tp197
sS'P1,31,3,A#3,2'
p198
(F0.0
F-0.7785547785547778
F0.34
F-0.7785547785547778
tp199
sS'P1,22,3,G#3,4'
p200
(F0.0
F-0.028818443804039084
F0.34
F-0.028818443804039084
tp201
sS'P1,47,3,G3,1'
p202
(F0.0
F0.666121112929627
F0.27
F0.666121112929627
tp203
sS'P1,50,3,C#4,2'
p204
(F0.0
F-0.044247787610630085
F0.32
F-0.044247787610630085
tp205
sS'P1,73,3,F#3,5'
p206
(F0.0
F0.0
F0.33
F0.0
tp207
sS'P1,23,1,E5,1'
p208
(F0.0
F0.0
F0.7000000000000001
F0.0
tp209
sS'P1,88,1,G#5,4'
p210
(F0.0
F7.105427357601002e-15
F0.5
F7.105427357601002e-15
tp211
sS'P1,10,3,C#4,2'
p212
(F0.0
F-0.05865102639295783
F0.32
F-0.05865102639295783
tp213
sS'P1,21,3,F#3,1'
p214
(F0.0
F-0.030674846625767582
F0.35000000000000003
F-0.030674846625767582
tp215
sS'P1,10,3,C#4,5'
p216
(F0.0
F-0.052910052910054683
F0.32
F-0.052910052910054683
tp217
sS'P1,21,3,F#3,4'
p218
(F0.0
F-0.024449877750610804
F0.35000000000000003
F-0.024449877750610804
tp219
sS'P1,53,1,F#5,3'
p220
(F0.0013698630137048973
F0.167816091954023
F0.62
F0.167816091954023
tp221
sS'P1,70,1,C#5,2'
p222
(F0.0
F0.36720867208670804
F0.75
F0.36720867208670804
tp223
sS'P1,26,3,C#3,0'
p224
(F0.0
F0.0
F0.32
F0.0
tp225
sS'P1,66,1,C#5,2'
p226
(F0.0
F-0.0015105740181254879
F0.5
F-0.0015105740181254879
tp227
sS'P1,34,1,F#5,1'
p228
(F0.001639344262302611
F0.12394366197182939
F0.41000000000000003
F0.12394366197182939
tp229
sS'P1,94,3,G3,1'
p230
(F0.0
F0.5665859564164561
F0.48
F0.5665859564164561
tp231
sS'P1,57,1,F5,1'
p232
(F0.0016949152542294899
F-0.09152542372882766
F0.44
F-0.09152542372882766
tp233
sS'P1,53,1,D6,5'
p234
(F0.0011494252873562871
F-0.0022988505747125743
F0.78
F-0.0022988505747125743
tp235
sS'P1,54,3,D4,6'
p236
(F0.0
F-0.003048780487810432
F0.46
F-0.003048780487810432
tp237
sS'P1,72,3,E4,7'
p238
(F0.0
F0.0
F0.22
F0.0
tp239
sS'P1,72,3,E4,4'
p240
(F0.0
F-0.04238921001925278
F0.22
F-0.04238921001925278
tp241
sS'P1,42,3,D4,6'
p242
(F0.0
F-0.7772397094430991
F0.35000000000000003
F-0.7772397094430991
tp243
sS'P1,79,1,E6,3'
p244
(F-0.0008787346221449388
F0.2663755458515247
F0.53
F0.2663755458515247
tp245
sS'P1,95,3,E4,3'
p246
(F0.0
F-0.800693240901211
F0.39
F-0.800693240901211
tp247
sS'P1,67,3,A3,4'
p248
(F0.0
F-0.8233618233618274
F0.34
F-0.8233618233618274
tp249
sS'P1,42,3,D4,3'
p250
(F0.0
F-0.7774647887323972
F0.35000000000000003
F-0.7774647887323972
tp251
sS'P1,65,1,E5,3'
p252
(F-2.220446049250313e-15
F0.2329670329670283
F0.42
F0.2329670329670283
tp253
sS'P1,71,1,E5,1'
p254
(F-0.001094091903712957
F0.130982367758184
F0.66
F0.130982367758184
tp255
sS'P1,49,1,F#5,2'
p256
(F0.0
F1.5543122344752192e-15
F0.52
F1.5543122344752192e-15
tp257
sS'P1,89,1,D5,3'
p258
(F-0.0015384615384685385
F-0.07384615384616688
F0.4
F-0.07384615384616688
tp259
sS'P1,77,3,E4,5'
p260
(F0.0
F-0.8220064724919125
F0.56
F-0.8220064724919125
tp261
sS'P1,93,3,B3,2'
p262
(F0.0
F-0.04999999999997451
F0.5
F-0.04999999999997451
tp263
sS'P1,96,1,B4,0'
p264
(F0.0
F0.0
F0.38
F0.0
tp265
sS'P1,62,1,E5,4'
p266
(F0.0
F5.440092820663267e-15
F0.55
F5.440092820663267e-15
tp267
sS'P1,35,3,A3,4'
p268
(F0.0
F-0.8273809523809531
F0.28
F-0.8273809523809531
tp269
sS'P1,11,3,A#3,2'
p270
S'miss'
p271
sS'P1,35,3,A3,1'
p272
(F0.0
F-0.8275862068965497
F0.28
F-0.8275862068965497
tp273
sS'P1,48,1,C#6,1'
p274
(F-4.385380947269368e-15
F0.23293172690763178
F0.52
F0.23293172690763178
tp275
sS'P1,79,3,E4,2'
p276
(F0.0
F0.8330404217926173
F0.34
F0.8330404217926173
tp277
sS'P1,85,1,B5,4'
p278
(F0.0
F0.26539589442814426
F0.62
F0.26539589442814426
tp279
sS'P1,40,3,E4,7'
p280
(F0.0
F0.0
F0.29
F0.0
tp281
sS'P1,29,3,D3,0'
p282
(F0.0
F1.664406779661022
F0.39
F1.664406779661022
tp283
sS'P1,40,3,E4,4'
p284
(F0.0
F0.0
F0.35000000000000003
F0.0
tp285
sS'P1,17,3,B3,5'
p286
(F0.0
F-0.8213333333333334
F0.4
F-0.8213333333333334
tp287
sS'P1,61,3,F#3,4'
p288
(F0.008771929824561334
F0.015915119363395302
F0.32
F0.015915119363395302
tp289
sS'P1,41,1,A#4,1'
p290
(F-7.716050021144838e-15
F0.5152354570637132
F0.7000000000000001
F0.5152354570637132
tp291
sS'P1,76,3,A3,1'
p292
(F0.0
F-0.8213166144200607
F0.47000000000000003
F-0.8213166144200607
tp293
sS'P1,59,3,A#2,0'
p294
(F0.0
F0.0
F0.33
F0.0
tp295
sS'P1,5,3,B2,0'
p296
(F0.0
F1.3973941368078169
F0.46
F1.3973941368078169
tp297
sS'P1,24,3,C#4,2'
p298
(F0.0
F-0.7796052631578946
F0.31
F-0.7796052631578946
tp299
sS'P1,93,3,B3,5'
p300
(F0.0
F0.0
F0.5
F0.0
tp301
sS'P1,7,1,E5,1'
p302
(F0.0
F0.16621983914209112
F0.48
F0.16621983914209112
tp303
sS'P1,63,3,B3,0'
p304
(F0.0
F-0.7794117647058809
F0.39
F-0.7794117647058809
tp305
sS'P1,38,1,F#5,1'
p306
(F-0.0016181229773551409
F0.12121212121212213
F0.6
F0.12121212121212213
tp307
sS'P1,44,1,E5,0'
p308
(F0.0
F-5.551115123125783e-17
F0.61
F-5.551115123125783e-17
tp309
sS'P1,88,3,E4,3'
p310
(F0.0
F-0.07282913165266813
F0.28
F-0.07282913165266813
tp311
sS'P1,48,1,A5,5'
p312
(F-2.275957200481571e-15
F0.23362445414847186
F0.59
F0.23362445414847186
tp313
sS'P1,31,1,B4,2'
p314
(F0.0
F0.060606060606058665
F0.6
F0.060606060606058665
tp315
sS'P1,4,3,B3,5'
p316
(F0.0
F0.0
F0.28
F0.0
tp317
sS'P1,29,1,A#5,3'
p318
(F-0.008771929824565372
F0.2847457627118666
F0.84
F0.2847457627118666
tp319
sS'P1,84,1,A5,1'
p320
(F0.0
F0.17166212534059605
F0.5700000000000001
F0.17166212534059605
tp321
sS'P1,4,3,B3,2'
p322
(F0.0
F0.0
F0.28
F0.0
tp323
sS'P1,64,1,B-4,3'
p324
(F-0.0006570302233837033
F-0.0013140604467674066
F0.46
F-0.0013140604467674066
tp325
sS'P1,78,3,D3,0'
p326
(F0.0
F0.0
F0.56
F0.0
tp327
sS'P1,45,3,G4,3'
p328
(F0.0
F-0.8145695364238441
F0.46
F-0.8145695364238441
tp329
sS'P1,22,3,D4,6'
p330
(F0.0
F-0.028818443804039084
F0.34
F-0.028818443804039084
tp331
sS'P1,71,1,C#5,3'
p332
(F-0.0012594458438378031
F0.13235294117647148
F0.52
F0.13235294117647148
tp333
sS'P1,45,3,G4,6'
p334
(F0.0
F-0.8145695364238399
F0.39
F-0.8145695364238399
tp335
sS'P1,65,1,B-4,0'
p336
(F0.0
F0.0009208103130780021
F0.46
F0.0009208103130780021
tp337
sS'P1,22,3,D4,3'
p338
(F0.0
F-0.022271714922043606
F0.34
F-0.022271714922043606
tp339
sS'P1,87,3,G3,4'
p340
(F0.0
F-0.03816793893127435
F0.31
F-0.03816793893127435
tp341
sS'P1,58,3,C#3,0'
p342
(F0.0
F-0.002386634844870894
F0.39
F-0.002386634844870894
tp343
sS'P1,30,3,E3,0'
p344
(F0.0
F0.0028943560057887157
F0.36
F0.0028943560057887157
tp345
sS'P1,24,3,B2,0'
p346
(F0.0
F-0.0029325513196488684
F0.31
F-0.0029325513196488684
tp347
sS'P1,71,3,G2,0'
p348
(F0.0
F-0.7559808612440202
F0.54
F-0.7559808612440202
tp349
sS'P1,21,1,G5,1'
p350
(F0.001424501424499458
F0.23619631901840474
F0.49
F0.23619631901840474
tp351
sS'P1,73,1,F#4,0'
p352
(F0.0
F0.3666666666666667
F0.55
F0.3666666666666667
tp353
sS'P1,33,3,G3,1'
p354
(F0.0
F-0.7783933518005535
F0.24
F-0.7783933518005535
tp355
sS'P1,2,3,F#3,4'
p356
(F0.0
F-0.09836065573770514
F0.27
F-0.09836065573770514
tp357
sS'P1,63,1,C#5,4'
p358
(F0.0
F-7.271960811294775e-15
F0.39
F-7.271960811294775e-15
tp359
sS'P1,96,3,B3,0'
p360
(F0.0
F-0.8005181347150279
F0.33
F-0.8005181347150279
tp361
sS'P1,2,3,F#3,1'
p362
(F0.0
F-0.09999999999999998
F0.27
F-0.09999999999999998
tp363
sS'P1,93,1,F#6,0'
p364
(F0.0
F0.12749999999999284
F0.7000000000000001
F0.12749999999999284
tp365
sS'P1,89,3,F#3,4'
p366
(F0.0
F-0.8006042296072502
F0.47000000000000003
F-0.8006042296072502
tp367
sS'P1,89,3,F#3,1'
p368
(F0.0
F-0.8000000000000028
F0.47000000000000003
F-0.8000000000000028
tp369
sS'P1,81,3,F#3,1'
p370
(F0.0
F-0.7564766839378175
F0.31
F-0.7564766839378175
tp371
sS'P1,89,1,E5,2'
p372
(F0.0
F-0.07230769230769829
F0.45
F-0.07230769230769829
tp373
sS'P1,2,3,E4,3'
p374
(F0.0
F-0.09999999999999998
F0.27
F-0.09999999999999998
tp375
sS'P1,2,3,E4,6'
p376
(F0.0
F-0.09836065573770514
F0.27
F-0.09836065573770514
tp377
sS'P1,81,3,F#3,3'
p378
(F0.0
F-0.755344418052256
F0.31
F-0.755344418052256
tp379
sS'P1,69,1,B4,0'
p380
(F0.0
F-1.149080830487037e-14
F0.56
F-1.149080830487037e-14
tp381
sS'P1,13,1,C#6,2'
p382
(F0.0
F0.2327327327327312
F0.68
F0.2327327327327312
tp383
sS'P1,74,3,B2,0'
p384
(F0.0
F0.0
F0.33
F0.0
tp385
sS'P1,54,1,D6,0'
p386
(F0.0
F-0.9973958333333334
F0.65
F-0.9973958333333334
tp387
sS'P1,36,3,F#4,3'
p388
(F0.0
F-0.777419354838708
F0.39
F-0.777419354838708
tp389
sS'P1,54,1,D6,2'
p390
(F0.0
F-0.0023752969121119127
F0.6
F-0.0023752969121119127
tp391
sS'P1,40,3,F#3,1'
p392
(F0.0
F-0.02419354838710397
F0.39
F-0.02419354838710397
tp393
sS'P1,61,3,D4,3'
p394
(F-0.007371007371002936
F-0.04294478527608425
F0.38
F-0.04294478527608425
tp395
sS'P1,40,3,F#3,2'
p396
(F0.0
F-0.01785714285714024
F0.35000000000000003
F-0.01785714285714024
tp397
sS'P1,40,3,F#3,5'
p398
(F0.0
F-0.017110266159694243
F0.29
F-0.017110266159694243
tp399
sS'P1,54,3,D4,3'
p400
(F0.0
F-0.02791878172587925
F0.46
F-0.02791878172587925
tp401
sS'P1,61,3,D4,6'
p402
(F-0.009202453987741
F0.0
F0.38
F0.0
tp403
sS'P1,20,3,B3,5'
p404
(F0.0
F-0.03481012658227578
F0.34
F-0.03481012658227578
tp405
sS'P1,18,3,F#3,1'
p406
(F0.0
F-0.024691358024691357
F0.35000000000000003
F-0.024691358024691357
tp407
sS'P1,20,3,B3,2'
p408
(F0.0
F-0.02610966057441133
F0.34
F-0.02610966057441133
tp409
sS'P1,18,3,F#3,4'
p410
(F0.0
F-0.029673590504452396
F0.35000000000000003
F-0.029673590504452396
tp411
sS'P1,33,3,G3,4'
p412
(F0.0
F-0.777777777777777
F0.24
F-0.777777777777777
tp413
sS'P1,36,3,F#4,6'
p414
(F0.0
F-0.7781155015197574
F0.35000000000000003
F-0.7781155015197574
tp415
sS'P1,29,1,C#6,1'
p416
(F-0.0038560411311066023
F0.25730994152046577
F0.73
F0.25730994152046577
tp417
sS'P1,2,1,A#4,0'
p418
(F0.0
F0.0
F0.44
F0.0
tp419
sS'P1,83,1,G#5,0'
p420
(F0.0
F0.12824207492795725
F0.5
F0.12824207492795725
tp421
sS'P1,36,1,B4,3'
p422
(F0.0015197568389043736
F-0.039513677811552905
F0.63
F-0.039513677811552905
tp423
sS'P1,24,1,F#5,4'
p424
(F0.0
F3.3306690738754696e-15
F0.62
F3.3306690738754696e-15
tp425
sS'P1,71,1,B4,2'
p426
(F0.0
F0.134760705289661
F0.59
F0.134760705289661
tp427
sS'P1,63,3,D4,1'
p428
(F0.0
F-0.7794117647058809
F0.39
F-0.7794117647058809
tp429
sS'P1,83,1,D5,5'
p430
(F-0.0014409221901990898
F0.25974025974025666
F0.5
F0.25974025974025666
tp431
sS'P1,56,3,F#3,4'
p432
(F0.0
F0.0
F0.29
F0.0
tp433
sS'P1,71,3,G3,1'
p434
(F0.0
F-0.037199124726463695
F0.46
F-0.037199124726463695
tp435
sS'P1,90,3,E4,3'
p436
(F0.0
F-0.014619883040904225
F0.39
F-0.014619883040904225
tp437
sS'P1,36,3,D4,5'
p438
(F0.0
F-0.7781155015197574
F0.35000000000000003
F-0.7781155015197574
tp439
sS'P1,44,3,F#4,3'
p440
(F0.0
F-0.8454545454545455
F0.45
F-0.8454545454545455
tp441
sS'P1,86,3,B2,0'
p442
(F0.0
F1.6344410876132947
F0.39
F1.6344410876132947
tp443
sS'P1,44,3,F#4,6'
p444
(F0.0
F-0.8482972136222908
F0.39
F-0.8482972136222908
tp445
sS'P1,36,3,D4,2'
p446
(F0.0
F-0.777419354838708
F0.39
F-0.777419354838708
tp447
sS'P1,78,3,F#4,3'
p448
(F0.0
F-0.02777777777777779
F0.56
F-0.02777777777777779
tp449
sS'P1,49,3,F#3,1'
p450
(F0.0
F-0.7560386473429944
F0.29
F-0.7560386473429944
tp451
sS'P1,56,3,E4,6'
p452
(F0.0
F0.0
F0.29
F0.0
tp453
sS'P1,49,3,F#3,3'
p454
(F0.0
F-0.75632911392405
F0.29
F-0.75632911392405
tp455
sS'P1,89,1,C#5,4'
p456
(F0.0
F-0.07099697885196254
F0.4
F-0.07099697885196254
tp457
sS'P1,56,3,E4,3'
p458
(F0.0
F-0.02793296089382269
F0.29
F-0.02793296089382269
tp459
sS'P1,93,1,F#5,5'
p460
(F-6.716849298982197e-15
F0.17287234042553234
F0.66
F0.17287234042553234
tp461
sS'P1,23,3,B3,5'
p462
(F0.0
F-0.02362204724409811
F0.32
F-0.02362204724409811
tp463
sS'P1,23,3,B3,2'
p464
(F0.0
F-0.02433090024331208
F0.32
F-0.02433090024331208
tp465
sS'P1,61,3,B3,5'
p466
(F0.008771929824561334
F0.015915119363395302
F0.38
F0.015915119363395302
tp467
sS'P1,34,3,F#3,4'
p468
(F0.0
F-0.7774647887323972
F0.24
F-0.7774647887323972
tp469
sS'P1,83,1,G5,1'
p470
(F-0.0014409221901990898
F0.12680115273775283
F0.5
F0.12680115273775283
tp471
sS'P1,21,3,B3,2'
p472
(F0.0
F-0.030674846625767582
F0.35000000000000003
F-0.030674846625767582
tp473
sS'P1,76,1,C#5,2'
p474
(F0.0
F0.1351791530944475
F0.62
F0.1351791530944475
tp475
sS'P1,27,3,F#2,0'
p476
g271
sS'P1,53,3,D4,3'
p477
(F0.0
F-0.054794520547933434
F0.46
F-0.054794520547933434
tp478
sS'P1,67,3,C#4,2'
p479
(F0.0
F-0.8235294117647012
F0.34
F-0.8235294117647012
tp480
sS'P1,4,1,B4,0'
p481
(F0.0
F0.0
F0.34
F0.0
tp482
sS'P1,53,3,D4,6'
p483
(F0.0
F0.0026041666666666297
F0.46
F0.0026041666666666297
tp484
sS'P1,62,1,G5,1'
p485
(F0.001326259946952013
F0.03468208092485558
F0.75
F0.03468208092485558
tp486
sS'P1,62,1,G5,5'
p487
(F5.440092820663267e-15
F-0.06829268292681911
F0.55
F-0.06829268292681911
tp488
sS'P1,91,1,E5,4'
p489
(F0.0
F0.2317073170731666
F0.63
F0.2317073170731666
tp490
sS'P1,67,3,E4,5'
p491
(F0.0
F-0.8233618233618274
F0.34
F-0.8233618233618274
tp492
sS'P1,15,3,D4,1'
p493
(F0.0
F-0.634204275534441
F0.32
F-0.634204275534441
tp494
sS'P1,47,1,F#5,0'
p495
(F0.0
F0.31739130434782614
F0.84
F0.31739130434782614
tp496
sS'P1,35,1,E5,1'
p497
(F0.0015673981191279829
F0.0029761904761904643
F0.49
F0.0029761904761904643
tp498
sS'P1,91,1,D5,5'
p499
(F-2.7755575615628914e-15
F0.23428571428571734
F0.56
F0.23428571428571734
tp500
sS'P1,63,3,E4,3'
p501
(F0.0
F-0.8725099601593644
F0.3
F-0.8725099601593644
tp502
sS'P1,24,1,A#5,2'
p503
(F0.0
F3.3306690738754696e-16
F0.66
F3.3306690738754696e-16
tp504
sS'P1,85,3,F#3,1'
p505
(F0.0
F-0.03303303303302518
F0.31
F-0.03303303303302518
tp506
sS'P1,41,3,F#3,1'
p507
(F0.0
F-0.024456521739129156
F0.39
F-0.024456521739129156
tp508
sS'P1,7,3,G3,4'
p509
(F0.0
F-0.045576407506702665
F0.32
F-0.045576407506702665
tp510
sS'P1,78,3,A3,4'
p511
(F0.0
F0.0
F0.65
F0.0
tp512
sS'P1,41,3,F#3,5'
p513
(F0.0
F-0.024930747922435215
F0.39
F-0.024930747922435215
tp514
sS'P1,28,1,B4,0'
p515
(F0.0
F0.0
F0.62
F0.0
tp516
sS'P1,7,3,G3,1'
p517
(F0.0
F-0.04265402843601873
F0.32
F-0.04265402843601873
tp518
sS'P1,37,3,E4,5'
p519
(F0.0
F-0.8238805970149266
F0.35000000000000003
F-0.8238805970149266
tp520
sS'P1,78,1,G5,0'
p521
(F0.0
F0.1611111111111111
F0.7000000000000001
F0.1611111111111111
tp522
sS'P1,91,1,G5,1'
p523
(F-5.551115123125783e-17
F0.23417721518987408
F0.71
F0.23417721518987408
tp524
sS'P1,37,3,E4,2'
p525
(F0.0
F-0.8221476510067085
F0.39
F-0.8221476510067085
tp526
sS'P1,56,1,G#5,4'
p527
(F0.0
F-0.00147492625369533
F0.5700000000000001
F-0.00147492625369533
tp528
sS'P1,17,3,D4,3'
p529
(F0.0
F-0.8241758241758241
F0.4
F-0.8241758241758241
tp530
sS'P1,46,3,F#4,6'
p531
(F-0.018580276322045286
F0.0
F0.48
F0.0
tp532
sS'P1,17,3,D4,6'
p533
(F0.0
F-0.8213333333333334
F0.4
F-0.8213333333333334
tp534
sS'P1,44,3,A3,4'
p535
(F0.0
F-0.8482972136222908
F0.39
F-0.8482972136222908
tp536
sS'P1,73,3,E4,4'
p537
(F0.0
F-0.061111111111111116
F0.33
F-0.061111111111111116
tp538
sS'P1,73,3,E4,7'
p539
(F0.0
F0.0
F0.33
F0.0
tp540
sS'P1,29,3,D4,6'
p541
(F-0.008771929824569424
F0.0
F0.41000000000000003
F0.0
tp542
sS'P1,33,1,B-4,0'
p543
(F0.0
F0.0013850415512477454
F0.31
F0.0013850415512477454
tp544
sS'P1,44,3,A3,1'
p545
(F0.0
F-0.8454545454545455
F0.45
F-0.8454545454545455
tp546
sS'P1,29,3,D4,3'
p547
(F-0.007712082262213205
F-0.058479532163750236
F0.41000000000000003
F-0.058479532163750236
tp548
sS'P1,27,3,C#4,5'
p549
(F0.0
F-0.6677740863787365
F0.33
F-0.6677740863787365
tp550
sS'P1,8,1,C#5,5'
p551
(F1.4432899320127035e-15
F0.13479623824451348
F0.5700000000000001
F0.13479623824451348
tp552
sS'P1,14,3,G4,3'
p553
(F0.0
F0.0
F0.4
F0.0
tp554
sS'P1,42,3,B2,0'
p555
(F0.0
F-0.002865329512883652
F0.39
F-0.002865329512883652
tp556
sS'P1,90,3,C#3,0'
p557
(F0.0
F0.0
F0.3
F0.0
tp558
sS'P1,5,3,D4,6'
p559
(F0.0
F-0.09120521172638574
F0.46
F-0.09120521172638574
tp560
sS'P1,32,3,B2,0'
p561
(F0.0
F0.4336283185840673
F0.34
F0.4336283185840673
tp562
sS'P1,68,3,D4,5'
p563
(F0.0
F-0.8233438485804406
F0.37
F-0.8233438485804406
tp564
sS'P1,89,3,B3,2'
p565
(F0.0
F-0.8000000000000028
F0.47000000000000003
F-0.8000000000000028
tp566
sS'P1,5,3,D4,3'
p567
(F0.0
F-0.08605341246290699
F0.46
F-0.08605341246290699
tp568
sS'P1,83,3,F#3,4'
p569
(F0.0
F-0.8011527377521603
F0.47000000000000003
F-0.8011527377521603
tp570
sS'P1,22,3,B2,0'
p571
(F0.0
F1.634005763688758
F0.34
F1.634005763688758
tp572
sS'P1,48,1,D6,0'
p573
(F0.0
F0.23290598290597653
F0.52
F0.23290598290597653
tp574
sS'P1,57,1,F#5,0'
p575
(F0.0
F0.0016949152542294899
F0.49
F0.0016949152542294899
tp576
sS'P1,85,1,D6,5'
p577
(F-0.0014662756598293192
F-0.03812316715543551
F0.62
F-0.03812316715543551
tp578
sS'P1,88,3,C#4,2'
p579
(F0.0
F-0.07282913165266813
F0.28
F-0.07282913165266813
tp580
sS'P1,66,1,F#5,1'
p581
(F3.6637359812630166e-15
F0.0
F0.5
F0.0
tp582
sS'P1,95,1,F#5,1'
p583
(F-0.0012531328320699586
F0.1264637002341899
F0.62
F0.1264637002341899
tp584
sS'P1,12,3,F#3,4'
p585
(F0.0
F0.0029940119760479065
F0.42
F0.0029940119760479065
tp586
sS'P1,13,3,F#3,4'
p587
(F0.0
F0.0
F0.49
F0.0
tp588
sS'P1,69,3,C#3,0'
p589
(F0.0
F0.0
F0.31
F0.0
tp590
sS'P1,13,3,F#3,1'
p591
(F0.0
F-0.039039039039040935
F0.49
F-0.039039039039040935
tp592
sS'P1,12,3,F#3,1'
p593
(F0.0
F-0.04166666666666663
F0.42
F-0.04166666666666663
tp594
sS'P1,73,3,A#3,6'
p595
(F0.0
F0.0
F0.33
F0.0
tp596
sS'P1,81,3,D4,4'
p597
(F0.0
F-0.755344418052256
F0.31
F-0.755344418052256
tp598
sS'P1,34,3,D3,0'
p599
(F0.0
F-0.0027100271002856724
F0.39
F-0.0027100271002856724
tp600
sS'P1,93,1,D6,2'
p601
(F0.0
F0.126470588235311
F0.7000000000000001
F0.126470588235311
tp602
sS'P1,76,3,D4,2'
p603
(F0.0
F-0.8213166144200607
F0.47000000000000003
F-0.8213166144200607
tp604
sS'P1,76,3,D4,5'
p605
(F0.0
F-0.8241042345276914
F0.47000000000000003
F-0.8241042345276914
tp606
sS'P1,32,3,F#3,1'
p607
(F0.0
F0.0
F0.34
F0.0
tp608
sS'P1,65,3,G3,1'
p609
(F0.0
F0.0
F0.28
F0.0
tp610
sS'P1,63,1,F#4,5'
p611
(F-7.271960811294775e-15
F0.0
F0.39
F0.0
tp612
sS'P1,65,3,G3,4'
p613
(F0.0
F-0.0023923444976119423
F0.28
F-0.0023923444976119423
tp614
sS'P1,3,3,C#4,5'
p615
(F0.0
F-0.7344827586206895
F0.31
F-0.7344827586206895
tp616
sS'P1,15,3,E4,3'
p617
(F0.0
F-0.634204275534444
F0.32
F-0.634204275534444
tp618
sS'P1,47,1,F#6,2'
p619
(F0.0
F0.23322422258592845
F0.52
F0.23322422258592845
tp620
sS'P1,94,3,C#4,2'
p621
(F0.0
F0.5665859564164561
F0.48
F0.5665859564164561
tp622
sS'P1,69,3,G4,6'
p623
(F0.0
F-0.8012422360248408
F0.45
F-0.8012422360248408
tp624
sS'P1,37,3,G4,6'
p625
(F0.0
F-0.8238805970149266
F0.35000000000000003
F-0.8238805970149266
tp626
sS'P1,41,1,C#5,2'
p627
(F0.0
F0.5171919770773641
F0.7000000000000001
F0.5171919770773641
tp628
sS'P1,21,1,B5,4'
p629
(F0.0
F0.2334963325183378
F0.74
F0.2334963325183378
tp630
sS'P1,82,3,F#3,1'
p631
(F0.0
F-0.017817371937641102
F0.3
F-0.017817371937641102
tp632
sS'P1,80,1,C6,2'
p633
(F0.0
F0.2661469933184839
F0.5
F0.2661469933184839
tp634
sS'P1,87,3,E4,3'
p635
(F0.0
F-0.0556844547563885
F0.31
F-0.0556844547563885
tp636
sS'P1,82,3,F#3,4'
p637
(F0.0
F-0.018475750577371386
F0.3
F-0.018475750577371386
tp638
sS'P1,46,3,D3,0'
p639
(F0.0
F-0.024096385542163312
F0.43
F-0.024096385542163312
tp640
sS'P1,48,1,B5,3'
p641
(F2.6645352591003757e-15
F0.23199999999999893
F0.54
F0.23199999999999893
tp642
sS'P1,56,3,C#4,2'
p643
(F0.0
F-0.02793296089382269
F0.29
F-0.02793296089382269
tp644
sS'P1,33,3,A3,2'
p645
(F0.0
F-0.7783933518005535
F0.24
F-0.7783933518005535
tp646
sS'P1,25,1,B4,5'
p647
(F0.001661129568107822
F0.0
F0.7000000000000001
F0.0
tp648
sS'P1,57,3,F#3,1'
p649
(F0.0
F-0.823170731707318
F0.39
F-0.823170731707318
tp650
sS'P1,33,1,A4,1'
p651
(F0.0013850415512477454
F0.0027100271002710127
F0.34
F0.0027100271002710127
tp652
sS'P1,33,3,A3,5'
p653
(F0.0
F-0.777777777777777
F0.24
F-0.777777777777777
tp654
sS'P1,20,1,F#5,1'
p655
(F0.0
F0.16666666666666397
F0.61
F0.16666666666666397
tp656
sS'P1,76,1,B4,3'
p657
(F0.0016286644951021279
F-0.048859934853442644
F0.63
F-0.048859934853442644
tp658
sS'P1,51,3,C#4,5'
p659
(F0.0
F-0.7787356321839063
F0.39
F-0.7787356321839063
tp660
sS'P1,95,1,B4,2'
p661
(F0.0
F0.0011709601873450826
F0.56
F0.0011709601873450826
tp662
sS'P1,51,3,C#4,2'
p663
(F0.0
F-0.7795031055900624
F0.39
F-0.7795031055900624
tp664
sS'P1,33,1,C#5,2'
p665
(F0.0
F0.0013550135501373406
F0.45
F0.0013550135501373406
tp666
sS'P1,16,1,A#4,3'
p667
(F2.886579864025407e-15
F0.26666666666666666
F0.33
F0.26666666666666666
tp668
sS'P1,2,1,F#5,1'
p669
(F0.0
F0.200581395348838
F0.5700000000000001
F0.200581395348838
tp670
sS'P1,62,1,B4,2'
p671
(F0.0
F1.3322676295501878e-15
F0.55
F1.3322676295501878e-15
tp672
sS'P1,19,3,A#2,0'
p673
(F0.0
F0.0
F0.47000000000000003
F0.0
tp674
sS'P1,32,1,B-4,3'
p675
(F3.552713678800501e-15
F-0.0276923076923008
F0.42
F-0.0276923076923008
tp676
sS'P1,19,1,C#5,3'
p677
(F-0.0015576323987560592
F0.1993670886075955
F0.5700000000000001
F0.1993670886075955
tp678
sS'P1,53,1,G#5,0'
p679
(F0.0
F0.16666666666666397
F0.48
F0.16666666666666397
tp680
sS'P1,34,3,F#3,1'
p681
(F0.0
F-0.7770491803278655
F0.24
F-0.7770491803278655
tp682
sS'P1,6,3,B3,2'
p683
(F0.0
F-0.05943152454780409
F0.35000000000000003
F-0.05943152454780409
tp684
sS'P1,6,3,G#3,4'
p685
(F0.0
F-0.05943152454780409
F0.35000000000000003
F-0.05943152454780409
tp686
sS'P1,6,3,B3,5'
p687
(F0.0
F-0.05943152454780409
F0.35000000000000003
F-0.05943152454780409
tp688
sS'P1,84,3,B2,0'
p689
(F0.0
F1.6334745762711949
F0.39
F1.6334745762711949
tp690
sS'P1,49,1,D5,4'
p691
(F0.0
F1.4432899320127035e-15
F0.52
F1.4432899320127035e-15
tp692
sS'P1,68,3,A3,1'
p693
(F0.0
F-0.8217821782178202
F0.37
F-0.8217821782178202
tp694
sS'P1,68,3,A3,4'
p695
(F0.0
F-0.8233438485804406
F0.37
F-0.8233438485804406
tp696
sS'P1,16,1,E#4,1'
p697
(F0.0
F0.26709401709401864
F0.49
F0.26709401709401864
tp698
sS'P1,0,1,F#5,0'
p699
(F0.0
F0.2676950998185118
F0.58
F0.2676950998185118
tp700
sS'P1,75,1,C#5,3'
p701
(F0.0014662756598187165
F0.16709511568123356
F0.59
F0.16709511568123356
tp702
sS'P1,87,3,B2,0'
p703
(F0.0
F1.6278625954198627
F0.39
F1.6278625954198627
tp704
sS'P1,46,1,C#5,2'
p705
(F-0.018580276322045286
F0.3977932636469137
F0.8200000000000001
F0.3977932636469137
tp706
sS'P1,51,1,F#5,2'
p707
(F0.0
F0.03726708074534091
F0.61
F0.03726708074534091
tp708
sS'P1,30,3,G3,1'
p709
(F0.0
F-0.14905933429811746
F0.3
F-0.14905933429811746
tp710
sS'P1,68,1,E5,0'
p711
(F0.0
F0.0016501650165061665
F0.55
F0.0016501650165061665
tp712
sS'P1,8,3,F#3,1'
p713
(F0.0
F-0.777439024390244
F0.35000000000000003
F-0.777439024390244
tp714
sS'P1,22,3,G#3,1'
p715
(F0.0
F-0.022271714922043606
F0.34
F-0.022271714922043606
tp716
sS'P1,8,3,F#3,4'
p717
(F0.0
F-0.7784810126582272
F0.35000000000000003
F-0.7784810126582272
tp718
sS'P1,43,3,A3,4'
p719
(F0.0
F-0.7331378299120264
F0.39
F-0.7331378299120264
tp720
sS'P1,43,3,E4,5'
p721
(F0.0
F-0.7331378299120264
F0.39
F-0.7331378299120264
tp722
sS'P1,43,3,A3,1'
p723
(F0.0
F-0.7341772151898727
F0.33
F-0.7341772151898727
tp724
sS'P1,14,3,E3,0'
p725
(F0.0
F0.8347107438016592
F0.49
F0.8347107438016592
tp726
sS'P1,31,1,F#5,1'
p727
(F0.0013550135501373406
F0.0606060606060604
F0.6
F0.0606060606060604
tp728
sS'P1,88,3,F#3,4'
p729
(F0.0
F-0.07499999999998685
F0.28
F-0.07499999999998685
tp730
sS'P1,15,1,F#4,5'
p731
(F0.0011876484560540135
F0.035555555555555556
F0.48
F0.035555555555555556
tp732
sS'P1,88,3,F#3,1'
p733
(F0.0
F-0.07282913165266813
F0.28
F-0.07282913165266813
tp734
sS'P1,51,1,E5,4'
p735
(F0.0
F0.03735632183908477
F0.47000000000000003
F0.03735632183908477
tp736
sS'P1,17,3,B3,2'
p737
(F0.0
F-0.8241758241758241
F0.4
F-0.8241758241758241
tp738
sS'P1,1,3,B3,2'
p739
(F0.0
F-0.7321937321937321
F0.31
F-0.7321937321937321
tp740
sS'P1,13,3,D4,6'
p741
(F0.0
F0.0
F0.49
F0.0
tp742
sS'P1,67,1,F#5,0'
p743
(F0.0
F1.3433698597964394e-14
F0.5
F1.3433698597964394e-14
tp744
sS'P1,79,1,F#5,0'
p745
(F0.0
F0.27134986225895896
F0.77
F0.27134986225895896
tp746
sS'P1,1,3,B3,5'
p747
(F0.0
F-0.7329376854599408
F0.31
F-0.7329376854599408
tp748
sS'P1,13,3,D4,3'
p749
(F0.0
F-0.039039039039040935
F0.49
F-0.039039039039040935
tp750
sS'P1,84,3,F#3,1'
p751
(F0.0
F-0.02457002457002011
F0.31
F-0.02457002457002011
tp752
sS'P1,78,3,A3,1'
p753
(F0.0
F-0.02777777777777779
F0.56
F-0.02777777777777779
tp754
sS'P1,59,3,F#3,4'
p755
(F0.0
F-0.7850746268656688
F0.39
F-0.7850746268656688
tp756
sS'P1,84,3,F#3,4'
p757
(F0.0
F0.0
F0.31
F0.0
tp758
sS'P1,59,3,F#3,1'
p759
(F0.0
F-0.799352750809065
F0.47000000000000003
F-0.799352750809065
tp760
sS'P1,81,1,G#5,0'
p761
(F0.0
F0.2653846153846088
F0.43
F0.2653846153846088
tp762
sS'P1,21,3,B3,5'
p763
(F0.0
F-0.024449877750610804
F0.35000000000000003
F-0.024449877750610804
tp764
sS'P1,61,3,B3,2'
p765
(F0.00920245398772996
F-0.024539877300624346
F0.38
F-0.024539877300624346
tp766
sS'P1,90,3,E4,6'
p767
(F0.0
F-0.0165289256198643
F0.39
F-0.0165289256198643
tp768
sS'P1,31,3,B3,0'
p769
(F0.0
F-0.7777777777777786
F0.34
F-0.7777777777777786
tp770
sS'P1,8,1,F#5,4'
p771
(F0.0
F0.1329113924050651
F0.5700000000000001
F0.1329113924050651
tp772
sS'P1,92,3,F#3,1'
p773
(F0.0
F-0.061881188118814046
F0.39
F-0.061881188118814046
tp774
sS'P1,95,3,D4,1'
p775
(F0.0
F-0.8009367681498862
F0.61
F-0.8009367681498862
tp776
sS'P1,41,1,E5,3'
p777
(F0.0013850415512477454
F0.5157593123209223
F0.7000000000000001
F0.5157593123209223
tp778
sS'P1,46,3,A3,4'
p779
(F0.015098722415795443
F0.02838427947598256
F0.43
F0.02838427947598256
tp780
sS'P1,19,1,E5,4'
p781
(F0.0
F0.199367088607597
F0.48
F0.199367088607597
tp782
sS'P1,29,1,B5,4'
p783
(F-0.008771929824569424
F0.06610169491525852
F0.84
F0.06610169491525852
tp784
sS'P1,58,3,C#4,2'
p785
(F0.0
F-0.22834645669290232
F0.32
F-0.22834645669290232
tp786
sS'P1,46,3,F#4,3'
p787
(F-0.024096385542163312
F-0.0786088613625412
F0.48
F-0.0786088613625412
tp788
sS'P1,16,3,B2,2'
p789
(F0.0
F-0.6004273504273481
F0.31
F-0.6004273504273481
tp790
sS'P1,11,3,E4,6'
p791
(F0.0
F-0.8013029315960916
F0.36
F-0.8013029315960916
tp792
sS'P1,51,1,D5,5'
p793
(F3.9968028886505635e-15
F0.03846153846153843
F0.45
F0.03846153846153843
tp794
sS'P1,11,3,E4,3'
p795
(F0.0
F-0.8006134969325155
F0.36
F-0.8006134969325155
tp796
sS'P1,34,1,D5,3'
p797
(F0.001408450704218911
F0.0
F0.41000000000000003
F0.0
tp798
sS'P1,19,1,D5,5'
p799
(F1.4432899320127035e-15
F0.19902912621359203
F0.43
F0.19902912621359203
tp800
sS'P1,59,1,C#5,3'
p801
(F-0.0016181229773551409
F-0.0032362459547102818
F0.59
F-0.0032362459547102818
tp802
sS'P1,60,3,B2,0'
p803
(F0.0
F0.004999999999999943
F0.39
F0.004999999999999943
tp804
sS'P1,45,1,B4,0'
p805
(F0.0
F-0.0033112582781538724
F0.7000000000000001
F-0.0033112582781538724
tp806
sS'P1,95,1,D5,3'
p807
(F-0.0011709601873621245
F0.0
F0.51
F0.0
tp808
sS'P1,81,3,B2,0'
p809
(F0.0
F-0.001923076923085576
F0.39
F-0.001923076923085576
tp810
sS'P1,81,1,G5,1'
p811
(F-4.385380947269368e-15
F0.10362694300518402
F0.43
F0.10362694300518402
tp812
sS'P1,5,1,G5,1'
p813
(F-7.771561172376096e-16
F0.166172106824926
F0.53
F0.166172106824926
tp814
sS'P1,85,3,B2,0'
p815
(F0.0
F1.6334310850439815
F0.39
F1.6334310850439815
tp816
sS'P1,55,3,B2,0'
p817
(F0.0
F1.3308823529411704
F0.36
F1.3308823529411704
tp818
sS'P1,28,3,B3,5'
p819
(F0.0
F0.0
F0.25
F0.0
tp820
sS'P1,62,3,E3,0'
p821
(F0.0
F0.002890173410404632
F0.39
F0.002890173410404632
tp822
sS'P1,28,3,B3,2'
p823
(F0.0
F-0.019656019656015267
F0.39
F-0.019656019656015267
tp824
sS'P1,82,3,C#3,0'
p825
(F0.0
F0.0
F0.39
F0.0
tp826
sS'P1,46,3,A3,1'
p827
(F0.012386850881379089
F-0.04144830871842464
F0.43
F-0.04144830871842464
tp828
sS'P1,64,3,D4,2'
p829
(F0.0
F0.0013140604467805693
F0.27
F0.0013140604467805693
tp830
sS'P1,85,1,G#5,0'
p831
(F0.0
F0.2656675749318649
F0.5700000000000001
F0.2656675749318649
tp832
sS'P1,64,1,F#4,1'
p833
(F0.0
F0.29960578186596976
F0.46
F0.29960578186596976
tp834
sS'P1,68,3,D3,0'
p835
(F0.0
F0.0
F0.39
F0.0
tp836
sS'P1,61,1,B5,4'
p837
(F-0.009202453987741
F0.19883040935671958
F0.7000000000000001
F0.19883040935671958
tp838
sS'P1,50,1,A5,1'
p839
(F0.0
F0.1293375394321774
F0.54
F0.1293375394321774
tp840
sS'P1,80,1,C#6,1'
p841
(F-6.938893903907228e-15
F0.26726057906458744
F0.5
F0.26726057906458744
tp842
sS'P1,22,1,E#5,1'
p843
(F0.0
F0.0
F0.45
F0.0
tp844
sS'P1,69,3,E4,2'
p845
(F0.0
F-0.8021582733812995
F0.45
F-0.8021582733812995
tp846
sS'P1,13,1,B5,5'
p847
(F-0.0015015015014999689
F0.23306233062330498
F0.7000000000000001
F0.23306233062330498
tp848
sS'P1,55,3,G3,1'
p849
(F0.0
F-0.03854875283445525
F0.34
F-0.03854875283445525
tp850
sS'P1,55,3,G3,4'
p851
(F0.0
F-0.00551470588237124
F0.34
F-0.00551470588237124
tp852
sS'P1,82,3,E4,3'
p853
(F0.0
F-0.017817371937641102
F0.3
F-0.017817371937641102
tp854
sS'P1,82,1,A#4,0'
p855
(F0.0
F0.0
F0.31
F0.0
tp856
sS'P1,65,1,A4,1'
p857
(F0.0009208103130780021
F0.23444976076554924
F0.31
F0.23444976076554924
tp858
sS'P1,38,1,D5,3'
p859
(F-0.0013774104683157984
F-0.0027548209366315968
F0.6
F-0.0027548209366315968
tp860
sS'P1,49,1,G#5,0'
p861
(F0.0
F0.23362445414847233
F0.59
F0.23362445414847233
tp862
sS'P1,85,3,B3,2'
p863
(F0.0
F-0.03303303303302518
F0.31
F-0.03303303303302518
tp864
sS'P1,24,3,F#3,4'
p865
(F0.0
F-0.7794117647058809
F0.31
F-0.7794117647058809
tp866
sS'P1,24,3,F#3,1'
p867
(F0.0
F-0.7796052631578946
F0.31
F-0.7796052631578946
tp868
sS'P1,70,3,D4,2'
p869
(F0.0
F-0.06501547987613987
F0.51
F-0.06501547987613987
tp870
sS'P1,44,1,D5,1'
p871
(F-5.551115123125783e-17
F0.0
F0.54
F0.0
tp872
sS'P1,3,3,A#2,0'
p873
(F0.0
F-0.5668604651162785
F0.31
F-0.5668604651162785
tp874
sS'P1,58,1,A#4,0'
p875
(F0.0
F0.0
F0.38
F0.0
tp876
sS'P1,80,3,E4,2'
p877
(F0.0
F0.0
F0.39
F0.0
tp878
sS'P1,79,3,G2,0'
p879
(F0.0
F0.0
F0.38
F0.0
tp880
sS'P1,68,1,D5,1'
p881
(F0.0016501650165061665
F0.13564668769716165
F0.56
F0.13564668769716165
tp882
sS'P1,62,1,A5,0'
p883
(F0.0
F0.20026525198939338
F0.75
F0.20026525198939338
tp884
sS'P1,78,1,C#5,2'
p885
(F0.0
F0.19330453563714622
F0.8200000000000001
F0.19330453563714622
tp886
sS'P1,20,3,F#3,1'
p887
(F0.0
F-0.02610966057441133
F0.34
F-0.02610966057441133
tp888
sS'P1,25,1,F#5,2'
p889
(F0.0
F0.001661129568107822
F0.8
F0.001661129568107822
tp890
sS'P1,20,3,F#3,4'
p891
(F0.0
F-0.03481012658227578
F0.34
F-0.03481012658227578
tp892
sS'P1,26,3,F#3,1'
p893
(F0.0
F-0.060869565217391286
F0.33
F-0.060869565217391286
tp894
sS'P1,44,3,D4,5'
p895
(F0.0
F-0.8482972136222908
F0.39
F-0.8482972136222908
tp896
sS'P1,16,3,D4,1'
p897
(F0.0
F-0.6333333333333333
F0.32
F-0.6333333333333333
tp898
sS'P1,84,3,B3,2'
p899
(F0.0
F-0.02457002457002011
F0.31
F-0.02457002457002011
tp900
sS'P1,11,1,C#5,3'
p901
(F-3.3306690738754696e-16
F0.16612377850162843
F0.55
F0.16612377850162843
tp902
sS'P1,44,3,D4,2'
p903
(F0.0
F-0.8454545454545455
F0.45
F-0.8454545454545455
tp904
sS'P1,55,1,C#6,2'
p905
(F0.0
F0.006896551724137932
F0.64
F0.006896551724137932
tp906
sS'P1,77,3,G4,3'
p907
(F0.0
F-0.8213058419243953
F0.64
F-0.8213058419243953
tp908
sS'P1,38,3,F#4,6'
p909
(F0.0
F-0.8236914600550951
F0.4
F-0.8236914600550951
tp910
sS'P1,51,3,F#3,4'
p911
(F0.0
F-0.7787356321839063
F0.39
F-0.7787356321839063
tp912
sS'P1,38,3,F#4,3'
p913
(F0.0
F-0.8220064724919125
F0.46
F-0.8220064724919125
tp914
sS'P1,77,3,G4,6'
p915
(F0.0
F-0.8220064724919125
F0.56
F-0.8220064724919125
tp916
sS'P1,51,3,F#3,1'
p917
(F0.0
F-0.7795031055900624
F0.39
F-0.7795031055900624
tp918
sS'P1,55,1,E5,1'
p919
(F0.0
F0.0
F0.58
F0.0
tp920
sS'P1,7,3,E4,6'
p921
(F0.0
F-0.045576407506702665
F0.32
F-0.045576407506702665
tp922
sS'P1,5,3,B3,5'
p923
(F0.0
F-0.09120521172638574
F0.46
F-0.09120521172638574
tp924
sS'P1,8,1,A#5,2'
p925
(F0.0
F0.13414634146341442
F0.62
F0.13414634146341442
tp926
sS'P1,7,3,E4,3'
p927
(F0.0
F-0.04265402843601873
F0.32
F-0.04265402843601873
tp928
sS'P1,5,3,B3,2'
p929
(F0.0
F-0.08605341246290699
F0.46
F-0.08605341246290699
tp930
sS'P1,3,1,F#5,2'
p931
(F0.0
F0.19724770642201794
F0.52
F0.19724770642201794
tp932
sS'P1,60,3,D4,6'
p933
(F0.0
F-0.0023364485981137717
F0.39
F-0.0023364485981137717
tp934
sS'P1,60,3,D4,3'
p935
(F-0.011560693641615938
F-0.5225000000000055
F0.46
F-0.5225000000000055
tp936
sS'P1,51,1,G#5,0'
p937
(F0.0
F0.0488958990536309
F0.74
F0.0488958990536309
tp938
sS'P1,11,3,F#2,0'
p939
(F0.0
F0.0
F0.42
F0.0
tp940
sS'P1,11,3,C#4,5'
p941
(F0.0
F-0.8013029315960916
F0.36
F-0.8013029315960916
tp942
sS'P1,45,1,A4,1'
p943
(F-8.271161533457416e-15
F0.12582781456953718
F0.7000000000000001
F0.12582781456953718
tp944
sS'P1,45,1,E5,3'
p945
(F2.9976021664879227e-15
F0.12511584800741496
F0.7000000000000001
F0.12511584800741496
tp946
sS'P1,64,3,B2,0'
p947
(F0.0
F0.6
F0.39
F0.6
tp948
sS'P1,43,1,E5,1'
p949
(F1.4432899320127035e-15
F0.23460410557184502
F0.61
F0.23460410557184502
tp950
sS'P1,74,3,F#3,1'
p951
(F0.0
F-0.7796052631578921
F0.39
F-0.7796052631578921
tp952
sS'P1,80,1,A5,5'
p953
(F4.3298697960381105e-15
F0.26730769230768997
F0.44
F0.26730769230768997
tp954
sS'P1,74,3,F#3,4'
p955
(F0.0
F-0.7786458333333286
F0.39
F-0.7786458333333286
tp956
sS'P1,73,3,F#2,0'
p957
(F0.0
F0.0
F0.39
F0.0
tp958
sS'P1,51,1,G5,1'
p959
(F0.0015772870662489336
F0.04037267080745336
F0.73
F0.04037267080745336
tp960
sS'P1,87,1,E5,1'
p961
(F0.0
F0.08206106870229207
F0.39
F0.08206106870229207
tp962
sS'P1,33,3,C#3,0'
p963
(F0.0
F0.0
F0.39
F0.0
tp964
sS'P1,3,3,C#4,2'
p965
(F0.0
F-0.8042813455657494
F0.38
F-0.8042813455657494
tp966
sS'P1,24,3,E4,6'
p967
(F0.0
F-0.7794117647058809
F0.31
F-0.7794117647058809
tp968
sS'P1,39,1,B4,2'
p969
(F0.0
F0.15198237885463073
F0.7000000000000001
F0.15198237885463073
tp970
sS'P1,10,3,C#3,0'
p971
(F0.0
F-0.5675675675675684
F0.37
F-0.5675675675675684
tp972
sS'P1,51,3,E4,3'
p973
(F0.0
F-0.7795031055900624
F0.39
F-0.7795031055900624
tp974
sS'P1,41,3,F#3,2'
p975
(F0.0
F-0.025423728813574353
F0.39
F-0.025423728813574353
tp976
sS'P1,12,1,F#5,1'
p977
(F0.0
F3.3306690738754696e-16
F0.78
F3.3306690738754696e-16
tp978
sS'P1,50,3,E4,6'
p979
(F0.0
F-0.04761904761904434
F0.32
F-0.04761904761904434
tp980
sS'P1,84,3,D4,3'
p981
(F0.0
F-0.02457002457002011
F0.31
F-0.02457002457002011
tp982
sS'P1,84,3,D4,6'
p983
(F0.0
F0.0
F0.31
F0.0
tp984
sS'P1,11,1,E5,4'
p985
(F0.0
F0.16775244299674164
F0.59
F0.16775244299674164
tp986
sS'P1,54,3,B2,0'
p987
(F0.0
F1.33231707317073
F0.36
F1.33231707317073
tp988
sS'P1,67,3,G4,3'
p989
(F0.0
F-0.8235294117647012
F0.4
F-0.8235294117647012
tp990
sS'P1,35,3,E4,5'
p991
(F0.0
F-0.8273809523809531
F0.28
F-0.8273809523809531
tp992
sS'P1,32,3,D4,2'
p993
(F0.0
F0.0
F0.34
F0.0
tp994
sS'P1,7,3,B2,0'
p995
(F0.0
F1.4021447721179623
F0.37
F1.4021447721179623
tp996
sS'P1,1,1,C#5,3'
p997
(F0.0014245014245016785
F0.1691394658753709
F0.52
F0.1691394658753709
tp998
sS'P1,90,1,G5,1'
p999
(F0.0
F0.14848484848484847
F0.73
F0.14848484848484847
tp1000
sS'P1,14,1,B4,2'
p1001
(F0.0
F0.43388429752066826
F0.78
F0.43388429752066826
tp1002
sS'P1,51,1,C#5,3'
p1003
(F-7.216449660063518e-16
F0.03735632183908076
F0.54
F0.03735632183908076
tp1004
sS'P1,77,3,C#3,0'
p1005
(F0.0
F-0.0033003300329943475
F0.39
F-0.0033003300329943475
tp1006
sS'P1,56,1,A5,3'
p1007
(F1.6542323066914832e-14
F0.0
F0.53
F0.0
tp1008
sS'P1,57,1,E5,2'
p1009
(F0.0
F-0.07317073170731941
F0.48
F-0.07317073170731941
tp1010
sS'P1,41,3,F#2,0'
p1011
(F0.0
F0.0
F0.39
F0.0
tp1012
sS'P1,25,3,F#3,4'
p1013
(F0.0
F-0.7774086378737535
F0.29
F-0.7774086378737535
tp1014
sS'P1,40,3,B3,6'
p1015
(F0.0
F0.0
F0.29
F0.0
tp1016
sS'P1,54,3,B3,2'
p1017
(F0.0
F-0.02791878172587925
F0.46
F-0.02791878172587925
tp1018
sS'P1,25,3,F#3,1'
p1019
(F0.0
F-0.7774086378737535
F0.29
F-0.7774086378737535
tp1020
sS'P1,42,3,B3,2'
p1021
(F0.0
F-0.7774647887323972
F0.35000000000000003
F-0.7774647887323972
tp1022
sS'P1,42,3,B3,5'
p1023
(F0.0
F-0.7772397094430991
F0.35000000000000003
F-0.7772397094430991
tp1024
sS'P1,15,1,G5,0'
p1025
(F0.0
F0.234999999999998
F0.59
F0.234999999999998
tp1026
sS'P1,55,3,B3,5'
p1027
(F0.0
F-0.00551470588237124
F0.34
F-0.00551470588237124
tp1028
sS'P1,55,3,B3,2'
p1029
(F0.0
F-0.03854875283445525
F0.34
F-0.03854875283445525
tp1030
sS'P1,11,1,D5,5'
p1031
(F-0.0016286644951147289
F0.16455696202531622
F0.5700000000000001
F0.16455696202531622
tp1032
sS'P1,26,3,C#4,2'
p1033
(F0.0
F-0.060869565217391286
F0.33
F-0.060869565217391286
tp1034
sS'P1,76,3,F#4,3'
p1035
(F0.0
F-0.8213166144200607
F0.47000000000000003
F-0.8213166144200607
tp1036
sS'P1,65,3,A3,2'
p1037
(F0.0
F0.0
F0.28
F0.0
tp1038
sS'P1,65,3,A3,5'
p1039
(F0.0
F-0.0023923444976119423
F0.28
F-0.0023923444976119423
tp1040
sS'P1,65,1,C#5,2'
p1041
(F0.0
F0.2320574162679394
F0.41000000000000003
F0.2320574162679394
tp1042
sS'P1,26,3,C#4,5'
p1043
(F0.0
F0.09923664122137336
F0.33
F0.09923664122137336
tp1044
sS'P1,76,3,F#4,6'
p1045
(F0.0
F-0.8241042345276914
F0.47000000000000003
F-0.8241042345276914
tp1046
sS'P1,15,1,D5,3'
p1047
(F0.0011876484560580103
F0.033254156769596
F0.53
F0.033254156769596
tp1048
sS'P1,88,1,A5,3'
p1049
(F-0.0014005602240934056
F-0.0028011204481868113
F0.5
F-0.0028011204481868113
tp1050
sS'P1,47,1,E6,3'
p1051
(F-0.0008183306055620787
F0.23290598290598089
F0.52
F0.23290598290598089
tp1052
sS'P1,39,1,C#5,3'
p1053
(F3.9968028886505635e-15
F0.11021505376344005
F0.62
F0.11021505376344005
tp1054
sS'P1,37,3,C#3,0'
p1055
(F0.0
F0.0
F0.4
F0.0
tp1056
sS'P1,73,3,F#3,1'
p1057
(F0.0
F-0.07142857142857151
F0.39
F-0.07142857142857151
tp1058
sS'P1,48,1,A#5,4'
p1059
(F0.0
F0.23399999999999666
F0.59
F0.23399999999999666
tp1060
sS'P1,95,1,G5,0'
p1061
(F0.0
F0.1265664160401131
F0.62
F0.1265664160401131
tp1062
sS'P1,91,3,A#2,0'
p1063
(F0.0
F0.0031645569620253255
F0.39
F0.0031645569620253255
tp1064
sS'P1,45,3,A3,4'
p1065
(F0.0
F-0.8145695364238399
F0.39
F-0.8145695364238399
tp1066
sS'P1,29,1,F#5,5'
p1067
(F-0.005084745762708065
F0.06956521739130435
F0.84
F0.06956521739130435
tp1068
sS'P1,49,1,G5,1'
p1069
(F5.551115123125783e-16
F0.23429951690821332
F0.59
F0.23429951690821332
tp1070
sS'P1,60,3,F#3,4'
p1071
(F0.0
F-0.0023364485981137717
F0.32
F-0.0023364485981137717
tp1072
sS'P1,60,3,F#3,1'
p1073
(F0.004999999999999943
F-0.02750000000001107
F0.32
F-0.02750000000001107
tp1074
sS'P1,56,1,B5,1'
p1075
(F-0.003448275862068917
F0.0
F0.53
F0.0
tp1076
sS'P1,75,3,A2,0'
p1077
(F0.0
F0.0
F0.39
F0.0
tp1078
sS'P1,48,3,F#2,0'
p1079
(F0.0
F0.6204819277108468
F0.29
F0.6204819277108468
tp1080
sS'P1,86,3,D4,6'
p1081
(F0.0
F0.0
F0.39
F0.0
tp1082
sS'P1,75,3,E4,5'
p1083
(F0.0
F-0.8005865102639318
F0.45
F-0.8005865102639318
tp1084
sS'P1,39,3,G2,0'
p1085
(F0.0
F1.5110132158590348
F0.39
F1.5110132158590348
tp1086
sS'P1,83,3,F#3,1'
p1087
(F0.0
F-0.8011527377521603
F0.47000000000000003
F-0.8011527377521603
tp1088
sS'P1,17,1,D5,4'
p1089
(F0.0
F0.0013333333333332975
F0.46
F0.0013333333333332975
tp1090
sS'P1,17,1,D5,0'
p1091
(F0.0
F-0.0009174311926626322
F0.42
F-0.0009174311926626322
tp1092
sS'P1,39,3,B3,5'
p1093
(F0.0
F0.0
F0.39
F0.0
tp1094
sS'P1,77,1,E5,3'
p1095
(F0.0016181229773374328
F0.21875000000000394
F0.7000000000000001
F0.21875000000000394
tp1096
sS'P1,92,3,B3,5'
p1097
(F0.0
F0.0
F0.33
F0.0
tp1098
sS'P1,92,3,B3,2'
p1099
(F0.0
F-0.061881188118814046
F0.39
F-0.061881188118814046
tp1100
sS'P1,39,3,B3,2'
p1101
(F0.0
F-0.04494382022472898
F0.39
F-0.04494382022472898
tp1102
sS'P1,39,3,E4,3'
p1103
(F0.0
F-0.04494382022472898
F0.39
F-0.04494382022472898
tp1104
sS'P1,74,3,D4,3'
p1105
(F0.0
F-0.7796052631578921
F0.39
F-0.7796052631578921
tp1106
sS'P1,13,1,A#5,4'
p1107
(F0.0
F0.23273273273273498
F0.7000000000000001
F0.23273273273273498
tp1108
sS'P1,39,3,E4,6'
p1109
(F0.0
F0.0
F0.39
F0.0
tp1110
sS'P1,18,1,A#4,0'
p1111
(F0.0
F0.0
F0.41000000000000003
F0.0
tp1112
sS'P1,18,3,C#4,2'
p1113
(F0.0
F-0.024691358024691357
F0.35000000000000003
F-0.024691358024691357
tp1114
sS'P1,63,4,F#3,0'
p1115
(F0.0
F-1.2034313725490142
F0.39
F-1.2034313725490142
tp1116
sS'P1,18,3,C#4,5'
p1117
(F0.0
F-0.029673590504452396
F0.35000000000000003
F-0.029673590504452396
tp1118
sS'P1,50,3,F#3,4'
p1119
(F0.0
F-0.04761904761904434
F0.32
F-0.04761904761904434
tp1120
sS'P1,50,3,F#3,1'
p1121
(F0.0
F-0.044247787610630085
F0.32
F-0.044247787610630085
tp1122
sS'P1,34,3,D4,6'
p1123
(F0.0
F-0.7774647887323972
F0.24
F-0.7774647887323972
tp1124
sS'P1,61,1,F#5,5'
p1125
(F-0.00584795321637821
F0.19893899204244128
F0.65
F0.19893899204244128
tp1126
sS'P1,34,3,D4,3'
p1127
(F0.0
F-0.7770491803278655
F0.24
F-0.7770491803278655
tp1128
sS'P1,88,1,C6,0'
p1129
(F0.008456659619450203
F0.11310782241013984
F0.38
F0.11310782241013984
tp1130
sS'P1,62,3,G3,1'
p1131
(F0.0
F-0.3236994219653161
F0.24
F-0.3236994219653161
tp1132
sS'P1,52,3,B3,2'
p1133
(F0.0
F-0.052219321148823994
F0.39
F-0.052219321148823994
tp1134
sS'P1,27,3,A#3,2'
p1135
(F0.0
F-0.666666666666666
F0.39
F-0.666666666666666
tp1136
sS'P1,12,3,B3,5'
p1137
(F0.0
F0.0029940119760479065
F0.42
F0.0029940119760479065
tp1138
sS'P1,12,3,B3,2'
p1139
(F0.0
F-0.04166666666666663
F0.42
F-0.04166666666666663
tp1140
sS'P1,37,1,E5,3'
p1141
(F0.001492537313429354
F0.15932203389830632
F0.53
F0.15932203389830632
tp1142
sS'P1,42,1,F#5,1'
p1143
(F-0.0014084507042317895
F0.16464891041162244
F0.7000000000000001
F0.16464891041162244
tp1144
sS'P1,52,3,B3,5'
p1145
(F0.0
F0.0
F0.39
F0.0
tp1146
sS'P1,56,1,G5,5'
p1147
(F0.0014749262536791763
F0.0
F0.5700000000000001
F0.0
tp1148
sS'P1,67,1,B4,2'
p1149
(F0.0
F0.1324786324786178
F0.55
F0.1324786324786178
tp1150
sS'P1,35,1,C#5,3'
p1151
(F-1.9984014443252818e-15
F0.0
F0.49
F0.0
tp1152
sS'P1,63,1,D5,3'
p1153
(F3.3306690738754696e-15
F0.0
F0.47000000000000003
F0.0
tp1154
sS'P1,60,1,F#5,1'
p1155
(F0.0
F0.3636363636363653
F0.78
F0.3636363636363653
tp1156
sS'P1,94,1,B4,2'
p1157
(F0.0
F0.43370165745856826
F0.63
F0.43370165745856826
tp1158
sS'P1,14,1,C#5,3'
p1159
(F0.0013774104683234034
F0.43266475644699165
F0.78
F0.43266475644699165
tp1160
sS'P1,40,1,G4,2'
p1161
(F0.0
F0.1368821292775676
F0.6
F0.1368821292775676
tp1162
sS'P1,1,1,G5,1'
p1163
(F-0.000907441016333943
F0.1652421652421653
F0.52
F0.1652421652421653
tp1164
sS'P1,26,1,F#5,1'
p1165
(F0.0
F0.19160305343510975
F0.78
F0.19160305343510975
tp1166
sS'P1,86,3,B3,2'
p1167
(F0.0
F-0.03208556149732855
F0.39
F-0.03208556149732855
tp1168
sS'P1,5,1,D6,5'
p1169
(F-0.0016286644951147289
F0.0
F0.64
F0.0
tp1170
sS'P1,30,1,C#5,3'
p1171
(F0.0007235890014478663
F0.07091172214182354
F0.77
F0.07091172214182354
tp1172
sS'P1,17,3,F#3,1'
p1173
(F0.0
F-0.8241758241758241
F0.4
F-0.8241758241758241
tp1174
sS'P1,89,3,D4,6'
p1175
(F0.0
F-0.8006042296072502
F0.47000000000000003
F-0.8006042296072502
tp1176
sS'P1,28,1,F#5,1'
p1177
(F0.0
F0.0
F0.78
F0.0
tp1178
sS'P1,72,3,F#2,0'
p1179
(F0.0
F-0.2450980392156813
F0.29
F-0.2450980392156813
tp1180
sS'P1,89,3,D4,3'
p1181
(F0.0
F-0.8000000000000028
F0.47000000000000003
F-0.8000000000000028
tp1182
sS'P1,17,3,F#3,4'
p1183
(F0.0
F-0.8213333333333334
F0.4
F-0.8213333333333334
tp1184
sS'P1,78,3,D4,2'
p1185
(F0.0
F-0.02777777777777779
F0.56
F-0.02777777777777779
tp1186
sS'P1,87,1,C#6,2'
p1187
(F0.0
F0.16490486257927897
F0.53
F0.16490486257927897
tp1188
sS'P1,13,1,D6,3'
p1189
(F-0.0015015015015025224
F0.23123123123123196
F0.68
F0.23123123123123196
tp1190
sS'P1,81,3,D4,2'
p1191
(F0.0
F-0.7564766839378175
F0.31
F-0.7564766839378175
tp1192
sS'P1,23,1,C#6,2'
p1193
(F0.0
F0.0014662756598237126
F0.78
F0.0014662756598237126
tp1194
sS'P1,24,1,B5,1'
p1195
(F0.0014662756598237126
F0.0
F0.73
F0.0
tp1196
sS'P1,2,3,C#4,5'
p1197
(F0.0
F-0.09836065573770514
F0.27
F-0.09836065573770514
tp1198
sS'P1,2,3,C#4,2'
p1199
(F0.0
F-0.09999999999999998
F0.27
F-0.09999999999999998
tp1200
sS'P1,45,3,A3,1'
p1201
(F0.0
F-0.8145695364238441
F0.46
F-0.8145695364238441
tp1202
sS'P1,59,3,C#4,5'
p1203
(F0.0
F-0.7850746268656688
F0.39
F-0.7850746268656688
tp1204
sS'P1,68,1,C#5,2'
p1205
(F0.0
F0.13406940063091843
F0.56
F0.13406940063091843
tp1206
sS'P1,57,1,C#5,4'
p1207
(F0.0
F-0.07300275482093344
F0.47000000000000003
F-0.07300275482093344
tp1208
sS'P1,59,3,C#4,2'
p1209
(F0.0
F-0.799352750809065
F0.47000000000000003
F-0.799352750809065
tp1210
sS'P1,6,1,E#5,1'
p1211
(F0.0
F0.1653746770025839
F0.48
F0.1653746770025839
tp1212
sS'P1,82,1,A5,1'
p1213
(F0.0
F0.12680115273775283
F0.4
F0.12680115273775283
tp1214
sS'P1,52,1,A5,1'
p1215
(F0.0
F0.16809116809116745
F0.48
F0.16809116809116745
tp1216
sS'P1,23,3,B2,0'
p1217
(F0.0
F0.0
F0.32
F0.0
tp1218
sS'P1,26,1,A#4,0'
p1219
(F0.0
F0.0
F0.56
F0.0
tp1220
sS'P1,8,3,A#3,5'
p1221
(F0.0
F-0.7784810126582272
F0.35000000000000003
F-0.7784810126582272
tp1222
sS'P1,81,1,B4,5'
p1223
(F0.0011876484560580103
F0.0023310023310023015
F0.43
F0.0023310023310023015
tp1224
sS'P1,21,1,F#5,3'
p1225
(F-3.3306690738754696e-16
F0.23227383863080694
F0.61
F0.23227383863080694
tp1226
sS'P1,74,1,F#5,1'
p1227
(F5.88418203051333e-15
F0.06770833333333479
F0.7000000000000001
F0.06770833333333479
tp1228
sS'P1,74,1,C#5,2'
p1229
(F0.0
F0.06510416666667884
F0.7000000000000001
F0.06510416666667884
tp1230
sS'P1,23,3,G3,1'
p1231
(F0.0
F-0.02433090024331208
F0.32
F-0.02433090024331208
tp1232
sS'P1,91,3,F#3,4'
p1233
(F0.0
F-0.823170731707318
F0.49
F-0.823170731707318
tp1234
sS'P1,19,1,G5,1'
p1235
(F2.4424906541753444e-15
F0.19937694704049758
F0.54
F0.19937694704049758
tp1236
sS'P1,94,3,E3,0'
p1237
(F0.0
F0.30110497237569217
F0.39
F0.30110497237569217
tp1238
sS'P1,86,3,D4,3'
p1239
(F0.0
F-0.03208556149732855
F0.39
F-0.03208556149732855
tp1240
sS'P1,34,3,A3,5'
p1241
(F0.0
F-0.7774647887323972
F0.24
F-0.7774647887323972
tp1242
sS'P1,15,3,B3,0'
p1243
(F0.0
F-0.634204275534441
F0.32
F-0.634204275534441
tp1244
sS'P1,93,3,F#3,1'
p1245
(F0.0
F-0.04999999999997451
F0.5
F-0.04999999999997451
tp1246
sS'P1,34,3,A3,2'
p1247
(F0.0
F-0.7770491803278655
F0.24
F-0.7770491803278655
tp1248
sS'P1,86,1,D6,2'
p1249
(F0.0
F0.10672853828306175
F0.6900000000000001
F0.10672853828306175
tp1250
sS'P1,38,1,G5,0'
p1251
(F0.0
F0.14077669902911494
F0.7000000000000001
F0.14077669902911494
tp1252
sS'P1,86,1,D6,0'
p1253
(F0.0
F0.19786096256684443
F0.62
F0.19786096256684443
tp1254
sS'P1,24,1,G5,3'
p1255
(F3.3306690738754696e-16
F0.0
F0.62
F0.0
tp1256
sS'P1,92,1,F#5,1'
p1257
(F0.0
F0.0
F0.74
F0.0
tp1258
sS'P1,56,3,A#3,5'
p1259
(F0.0
F0.0
F0.29
F0.0
tp1260
sS'P1,10,1,F#5,1'
p1261
(F0.0
F0.1666666666666674
F0.63
F0.1666666666666674
tp1262
sS'P1,57,3,B3,5'
p1263
(F0.0
F-0.8236914600550951
F0.39
F-0.8236914600550951
tp1264
sS'P1,91,1,C#5,3'
p1265
(F1.4432899320127035e-15
F0.23170731707316944
F0.6900000000000001
F0.23170731707316944
tp1266
sS'P1,36,3,D3,0'
p1267
(F0.0
F0.0
F0.39
F0.0
tp1268
sS'P1,9,3,D4,3'
p1269
(F0.0
F-0.7999999999999993
F0.34
F-0.7999999999999993
tp1270
sS'P1,9,3,D4,6'
p1271
(F0.0
F-0.799457994579946
F0.34
F-0.799457994579946
tp1272
sS'P1,1,1,D5,4'
p1273
(F0.0
F0.16468842729970323
F0.5700000000000001
F0.16468842729970323
tp1274
sS'P1,38,3,D4,2'
p1275
(F0.0
F-0.8220064724919125
F0.46
F-0.8220064724919125
tp1276
sS'P1,16,1,F#4,2'
p1277
(F0.0
F0.2670940170940215
F0.49
F0.2670940170940215
tp1278
sS'P1,38,3,D4,5'
p1279
(F0.0
F-0.8236914600550951
F0.4
F-0.8236914600550951
tp1280
sS'P1,85,1,E#5,2'
p1281
(F0.0
F0.26576576576577204
F0.44
F0.26576576576577204
tp1282
sS'P1,69,3,E4,5'
p1283
(F0.0
F-0.8012422360248408
F0.45
F-0.8012422360248408
tp1284
sS'P1,37,1,B4,0'
p1285
(F0.0
F0.15771812080538006
F0.63
F0.15771812080538006
tp1286
sS'P1,23,3,G3,4'
p1287
(F0.0
F-0.02362204724409811
F0.32
F-0.02362204724409811
tp1288
sS'P1,29,3,B3,5'
p1289
(F0.010169491525423806
F0.017391304347826087
F0.34
F0.017391304347826087
tp1290
sS'P1,46,1,F#5,1'
p1291
(F-0.021676989042391348
F0.3914053426248511
F0.8200000000000001
F0.3914053426248511
tp1292
sS'P1,17,1,G5,1'
p1293
(F-0.0009174311926626322
F-0.0018348623853252644
F0.49
F-0.0018348623853252644
tp1294
sS'P1,80,3,F#2,0'
p1295
(F0.0
F0.4432071269487742
F0.39
F0.4432071269487742
tp1296
sS'P1,9,1,G5,1'
p1297
(F0.0015673981191198783
F0.13442622950819721
F0.6
F0.13442622950819721
tp1298
sS'P1,29,3,B3,2'
p1299
(F0.008771929824561334
F-0.0409356725146276
F0.34
F-0.0409356725146276
tp1300
sS'P1,92,3,F#3,4'
p1301
(F0.0
F0.0
F0.33
F0.0
tp1302
sS'P1,47,3,G2,0'
p1303
(F0.0
F-0.33187772925764125
F0.39
F-0.33187772925764125
tp1304
sS'P1,36,1,E5,0'
p1305
(F0.0
F3.6637359812630166e-15
F0.55
F3.6637359812630166e-15
tp1306
sS'P1,28,3,D4,3'
p1307
(F0.0
F-0.019656019656015267
F0.39
F-0.019656019656015267
tp1308
sS'P1,48,3,A#2,3'
p1309
(F0.0
F0.4344978165938869
F0.29
F0.4344978165938869
tp1310
sS'P1,1,1,F#5,2'
p1311
(F0.0
F0.16951566951566976
F0.58
F0.16951566951566976
tp1312
sS'P1,6,3,B2,0'
p1313
(F0.0
F1.3979328165374674
F0.35000000000000003
F1.3979328165374674
tp1314
sS'P1,6,3,D4,6'
p1315
(F0.0
F-0.05943152454780409
F0.35000000000000003
F-0.05943152454780409
tp1316
sS'P1,75,3,G4,3'
p1317
(F0.0
F-0.7986348122866844
F0.45
F-0.7986348122866844
tp1318
sS'P1,6,3,D4,3'
p1319
(F0.0
F-0.05943152454780409
F0.35000000000000003
F-0.05943152454780409
tp1320
sS'P1,75,3,G4,6'
p1321
(F0.0
F-0.8005865102639318
F0.45
F-0.8005865102639318
tp1322
sS'P1,42,1,G5,0'
p1323
(F0.0
F-0.0014084507042317895
F0.6900000000000001
F-0.0014084507042317895
tp1324
sS'P1,83,3,E4,6'
p1325
(F0.0
F-0.8011527377521603
F0.47000000000000003
F-0.8011527377521603
tp1326
sS'P1,64,3,F#3,1'
p1327
(F0.0
F0.0013140604467805693
F0.27
F0.0013140604467805693
tp1328
sS'P1,70,3,D4,5'
p1329
(F0.0
F0.0
F0.51
F0.0
tp1330
sS'P1,6,1,D6,2'
p1331
(F0.0
F0.16587677725118488
F0.61
F0.16587677725118488
tp1332
sS'P1,19,3,F#3,1'
p1333
(F0.0
F-0.778816199376948
F0.47000000000000003
F-0.778816199376948
tp1334
sS'P1,6,1,D6,0'
p1335
(F0.0
F0.1653746770025839
F0.65
F0.1653746770025839
tp1336
sS'P1,54,1,E#5,1'
p1337
(F0.0
F0.0
F0.47000000000000003
F0.0
tp1338
sS'P1,19,3,F#3,4'
p1339
(F0.0
F-0.7784810126582272
F0.47000000000000003
F-0.7784810126582272
tp1340
sS'P1,20,3,D4,3'
p1341
(F0.0
F-0.02610966057441133
F0.34
F-0.02610966057441133
tp1342
sS'P1,57,3,D4,6'
p1343
(F0.0
F-0.8236914600550951
F0.39
F-0.8236914600550951
tp1344
sS'P1,20,3,D4,6'
p1345
(F0.0
F-0.03481012658227578
F0.34
F-0.03481012658227578
tp1346
sS'P1,87,3,B3,5'
p1347
(F0.0
F-0.03816793893127435
F0.31
F-0.03816793893127435
tp1348
sS'P1,24,1,C#5,5'
p1349
(F3.3306690738754696e-15
F0.0
F0.62
F0.0
tp1350
sS'P1,36,3,A3,1'
p1351
(F0.0
F-0.777419354838708
F0.39
F-0.777419354838708
tp1352
sS'P1,3,3,F#3,4'
p1353
(F0.0
F-0.7344827586206895
F0.31
F-0.7344827586206895
tp1354
sS'P1,91,3,E4,6'
p1355
(F0.0
F-0.823170731707318
F0.49
F-0.823170731707318
tp1356
sS'P1,3,3,F#3,1'
p1357
(F0.0
F-0.8042813455657494
F0.38
F-0.8042813455657494
tp1358
sS'P1,36,3,A3,4'
p1359
(F0.0
F-0.7781155015197574
F0.35000000000000003
F-0.7781155015197574
tp1360
sS'P1,76,3,D3,0'
p1361
(F0.0
F0.0
F0.39
F0.0
tp1362
sS'P1,10,3,E4,3'
p1363
(F0.0
F-0.05865102639295783
F0.32
F-0.05865102639295783
tp1364
sS'P1,77,3,E4,2'
p1365
(F0.0
F-0.8213058419243953
F0.64
F-0.8213058419243953
tp1366
sS'P1,10,3,E4,6'
p1367
(F0.0
F-0.052910052910054683
F0.32
F-0.052910052910054683
tp1368
sS'P1,15,3,A#3,2'
p1369
(F0.0
F-0.634204275534444
F0.32
F-0.634204275534444
tp1370
sS'P1,35,3,C#4,2'
p1371
(F0.0
F-0.8275862068965497
F0.28
F-0.8275862068965497
tp1372
sS'P1,37,3,G4,3'
p1373
(F0.0
F-0.8221476510067085
F0.39
F-0.8221476510067085
tp1374
sS'P1,25,3,B2,0'
p1375
(F0.0
F0.0
F0.38
F0.0
tp1376
sS'P1,96,3,D4,1'
p1377
(F0.0
F-0.8005181347150279
F0.33
F-0.8005181347150279
tp1378
sS'P1,92,1,B4,0'
p1379
(F0.0
F0.0
F0.47000000000000003
F0.0
tp1380
sS'P1,17,3,B2,0'
p1381
(F0.0
F-0.0018348623853252644
F0.42
F-0.0018348623853252644
tp1382
sS'P1,91,3,E4,3'
p1383
(F0.0
F-0.8227848101265818
F0.49
F-0.8227848101265818
tp1384
sS'P1,39,1,F#5,0'
p1385
(F0.0
F0.2724719101123516
F0.7000000000000001
F0.2724719101123516
tp1386
sS'P1,9,1,D5,0'
p1387
(F0.0
F0.13322884012538883
F0.6
F0.13322884012538883
tp1388
sS'P1,69,1,E5,3'
p1389
(F9.880984919163893e-15
F0.23442136498515817
F0.6900000000000001
F0.23442136498515817
tp1390
sS'P1,9,1,D5,4'
p1391
(F0.0
F0.0013550135501350091
F0.48
F0.0013550135501350091
tp1392
sS'P1,35,1,F#5,0'
p1393
(F0.0
F0.0015673981191279829
F0.47000000000000003
F0.0015673981191279829
tp1394
sS'P1,88,1,B5,1'
p1395
(F-0.0031712473573005107
F0.0028011204481792505
F0.5
F0.0028011204481792505
tp1396
sS'P1,91,3,C#4,2'
p1397
(F0.0
F-0.8227848101265818
F0.49
F-0.8227848101265818
tp1398
sS'P1,87,3,E4,6'
p1399
(F0.0
F-0.03816793893127435
F0.31
F-0.03816793893127435
tp1400
sS'P1,91,3,C#4,5'
p1401
(F0.0
F-0.823170731707318
F0.49
F-0.823170731707318
tp1402
sS'P1,4,3,B2,0'
p1403
(F0.0
F-0.1571815718157189
F0.28
F-0.1571815718157189
tp1404
sS'P1,50,3,E4,3'
p1405
(F0.0
F-0.044247787610630085
F0.32
F-0.044247787610630085
tp1406
sS'P1,66,1,D5,3'
p1407
(F0.0015105740181282634
F0.0
F0.5
F0.0
tp1408
sS'P1,41,3,C#4,3'
p1409
(F0.0
F0.26592797783933586
F0.39
F0.26592797783933586
tp1410
sS'P1,9,3,B2,0'
p1411
(F0.0
F0.04262295081967229
F0.42
F0.04262295081967229
tp1412
sS'P1,40,1,A#4,0'
p1413
(F0.0
F1.3322676295501878e-15
F0.49
F1.3322676295501878e-15
tp1414
sS'P1,73,1,C#5,2'
p1415
(F0.0
F0.3661202185792479
F0.68
F0.3661202185792479
tp1416
sS'P1,69,3,A3,4'
p1417
(F0.0
F-0.8012422360248408
F0.45
F-0.8012422360248408
tp1418
sS'P1,91,1,F#5,2'
p1419
(F0.0
F0.23101265822785022
F0.71
F0.23101265822785022
tp1420
sS'P1,85,1,F#5,3'
p1421
(F0.001501501501505631
F0.2668621700879737
F0.5700000000000001
F0.2668621700879737
tp1422
sS'P1,61,3,D3,0'
p1423
(F0.0
F1.1695906432748524
F0.39
F1.1695906432748524
tp1424
sS'P1,78,3,D4,5'
p1425
(F0.0
F0.0
F0.65
F0.0
tp1426
sS'P1,93,3,D4,6'
p1427
(F0.0
F0.0
F0.5
F0.0
tp1428
sS'P1,67,3,A3,1'
p1429
(F0.0
F-0.8235294117647012
F0.34
F-0.8235294117647012
tp1430
sS'P1,21,1,E#5,2'
p1431
(F0.0
F0.23312883435582776
F0.58
F0.23312883435582776
tp1432
sS'P1,18,1,F#5,1'
p1433
(F0.0
F0.19817073170732036
F0.52
F0.19817073170732036
tp1434
sS'P1,75,3,A3,4'
p1435
(F0.0
F-0.8005865102639318
F0.45
F-0.8005865102639318
tp1436
sS'P1,71,3,G3,4'
p1437
(F0.0
F0.0
F0.31
F0.0
tp1438
sS'P1,47,3,E4,2'
p1439
(F0.0
F0.666121112929627
F0.27
F0.666121112929627
tp1440
sS'P1,41,1,F#4,0'
p1441
(F0.0
F0.3672316384180657
F0.49
F0.3672316384180657
tp1442
sS'P1,16,1,B4,4'
p1443
(F0.0
F0.2666666666666667
F0.4
F0.2666666666666667
tp1444
sS'P1,14,3,C#4,2'
p1445
(F0.0
F0.0
F0.4
F0.0
tp1446
sS'P1,16,1,B4,0'
p1447
(F0.0
F-0.033333333333333326
F0.38
F-0.033333333333333326
tp1448
sS'P1,63,1,F#5,1'
p1449
(F-9.492406860545088e-15
F-0.06544502617802817
F0.53
F-0.06544502617802817
tp1450
sS'P1,13,3,B3,2'
p1451
(F0.0
F-0.039039039039040935
F0.49
F-0.039039039039040935
tp1452
sS'P1,13,3,B3,5'
p1453
(F0.0
F0.0
F0.49
F0.0
tp1454
sS'P1,30,1,B4,2'
p1455
(F0.0
F0.07018813314037708
F0.78
F0.07018813314037708
tp1456
sS'P1,57,3,B3,2'
p1457
(F0.0
F-0.823170731707318
F0.39
F-0.823170731707318
tp1458
sS'P1,32,1,F#4,1'
p1459
(F-0.0008849557522164209
F0.13538461538461635
F0.42
F0.13538461538461635
tp1460
sS'P1,89,3,B2,0'
p1461
(F0.0
F0.0
F0.39
F0.0
tp1462
sS'P1,42,1,C#5,2'
p1463
(F0.0
F0.16585956416464964
F0.7000000000000001
F0.16585956416464964
tp1464
sS'P1,39,1,E5,1'
p1465
(F-5.10702591327572e-15
F0.1035242290748907
F0.7000000000000001
F0.1035242290748907
tp1466
sS'P1,90,3,C#4,2'
p1467
(F0.0
F-0.014619883040904225
F0.39
F-0.014619883040904225
tp1468
sS'P1,53,3,B3,5'
p1469
(F0.0
F0.0026041666666666297
F0.46
F0.0026041666666666297
tp1470
sS'P1,31,3,D4,1'
p1471
(F0.0
F-0.7777777777777786
F0.34
F-0.7777777777777786
tp1472
sS'P1,53,1,G5,1'
p1473
(F0.001424501424499458
F0.16712328767123494
F0.48
F0.16712328767123494
tp1474
sS'P1,95,1,F#4,5'
p1475
(F0.0008665511265220083
F0.0
F0.37
F0.0
tp1476
sS'P1,53,3,B3,2'
p1477
(F0.0
F-0.054794520547933434
F0.46
F-0.054794520547933434
tp1478
sS'P1,17,1,B4,5'
p1479
(F-0.0013333333333332975
F0.0
F0.41000000000000003
F0.0
tp1480
sS'P1,50,3,C#4,5'
p1481
(F0.0
F-0.04761904761904434
F0.32
F-0.04761904761904434
tp1482
sS'P1,91,3,F#3,1'
p1483
(F0.0
F-0.8227848101265818
F0.49
F-0.8227848101265818
tp1484
sS'P1,58,3,C#4,5'
p1485
(F0.0
F0.0
F0.32
F0.0
tp1486
sS'P1,5,3,F#3,4'
p1487
(F0.0
F-0.09120521172638574
F0.46
F-0.09120521172638574
tp1488
sS'P1,95,3,A#3,2'
p1489
(F0.0
F-0.800693240901211
F0.39
F-0.800693240901211
tp1490
sS'P1,5,3,F#3,1'
p1491
(F0.0
F-0.08605341246290699
F0.46
F-0.08605341246290699
tp1492
sS'P1,25,1,C#5,3'
p1493
(F-0.0016611295681048244
F0.0
F0.8
F0.0
tp1494
sS'P1,80,3,F#3,1'
p1495
(F0.0
F0.0
F0.39
F0.0
tp1496
sS'P1,81,1,C#5,3'
p1497
(F1.2989609388114332e-14
F0.0
F0.43
F0.0
tp1498
sS'P1,43,3,C#4,2'
p1499
(F0.0
F-0.7341772151898727
F0.33
F-0.7341772151898727
tp1500
sS'P1,85,3,D4,6'
p1501
(F0.0
F0.0
F0.31
F0.0
tp1502
sS'P1,88,3,B2,0'
p1503
(F-0.007633587786235352
F1.500000000000007
F0.39
F1.500000000000007
tp1504
sS'P1,73,3,C#4,3'
p1505
(F0.0
F0.0027322404371585103
F0.33
F0.0027322404371585103
tp1506
sS'P1,36,1,C#5,2'
p1507
(F0.0
F0.0015197568389043736
F0.63
F0.0015197568389043736
tp1508
sS'P1,62,1,C#5,3'
p1509
(F1.3322676295501878e-15
F0.0
F0.55
F0.0
tp1510
sS'P1,75,3,A3,1'
p1511
(F0.0
F-0.7986348122866844
F0.45
F-0.7986348122866844
tp1512
sS'P1,66,3,D4,3'
p1513
(F0.0
F-0.8227513227513215
F0.28
F-0.8227513227513215
tp1514
sS'P1,72,1,G4,2'
p1515
(F0.0
F0.13345864661653273
F0.5700000000000001
F0.13345864661653273
tp1516
sS'P1,67,1,C#5,3'
p1517
(F-0.0014245014245130583
F0.13101604278074833
F0.55
F0.13101604278074833
tp1518
sS'P1,89,1,B4,5'
p1519
(F-0.0015105740181254879
F-0.07250755287008803
F0.4
F-0.07250755287008803
tp1520
sS'P1,89,3,B3,5'
p1521
(F0.0
F-0.8006042296072502
F0.47000000000000003
F-0.8006042296072502
tp1522
sS'P1,4,3,F#3,4'
p1523
(F0.0
F0.0
F0.28
F0.0
tp1524
sS'P1,69,3,G4,3'
p1525
(F0.0
F-0.8021582733812995
F0.45
F-0.8021582733812995
tp1526
sS'P1,4,3,F#3,1'
p1527
(F0.0
F0.0
F0.28
F0.0
tp1528
sS'P1,95,4,F#3,0'
p1529
(F0.0
F-1.5667447306791642
F0.46
F-1.5667447306791642
tp1530
sS'P1,31,4,F#3,0'
p1531
(F0.0
F-1.7348484848484858
F0.34
F-1.7348484848484858
tp1532
sS'P1,29,3,F#3,1'
p1533
(F0.008771929824561334
F-0.0409356725146276
F0.34
F-0.0409356725146276
tp1534
sS'P1,34,1,G5,0'
p1535
(F0.0
F0.13934426229509145
F0.49
F0.13934426229509145
tp1536
sS'P1,29,3,F#3,4'
p1537
(F0.010169491525423806
F0.017391304347826087
F0.34
F0.017391304347826087
tp1538
sS'P1,86,3,G#3,4'
p1539
(F0.0
F0.0
F0.39
F0.0
tp1540
sS'P1,74,3,B3,2'
p1541
(F0.0
F-0.7796052631578921
F0.39
F-0.7796052631578921
tp1542
sS'P1,56,3,B2,0'
p1543
(F-0.00551470588237124
F1.2035398230088463
F0.35000000000000003
F1.2035398230088463
tp1544
sS'P1,74,3,B3,5'
p1545
(F0.0
F-0.7786458333333286
F0.39
F-0.7786458333333286
tp1546
sS'P1,73,1,A#4,1'
p1547
(F0.0
F0.3688524590163989
F0.68
F0.3688524590163989
tp1548
sS'P1,53,1,B5,4'
p1549
(F0.0
F0.16666666666666663
F0.72
F0.16666666666666663
tp1550
sS'P1,35,1,B4,2'
p1551
(F0.0
F-1.9984014443252818e-15
F0.49
F-1.9984014443252818e-15
tp1552
sS'P1,45,1,C#5,2'
p1553
(F0.0
F0.12582781456954018
F0.7000000000000001
F0.12582781456954018
tp1554
sS'P1,74,3,D4,6'
p1555
(F0.0
F-0.7786458333333286
F0.39
F-0.7786458333333286
tp1556
sS'P1,70,1,G5,0'
p1557
(F0.0
F-0.0015479876160878203
F0.6900000000000001
F-0.0015479876160878203
tp1558
sS'P1,87,3,G3,1'
p1559
(F0.0
F-0.0556844547563885
F0.31
F-0.0556844547563885
tp1560
sS'P1,93,1,A#5,3'
p1561
(F1.3433698597964394e-14
F0.3441176470588189
F0.66
F0.3441176470588189
tp1562
sS'P1,72,1,C#5,3'
p1563
(F-6.827871601444713e-15
F0.13333333333333333
F0.71
F0.13333333333333333
tp1564
sS'P1,27,1,D5,5'
p1565
(F-0.0016611295681048244
F0.1322314049586762
F0.63
F0.1322314049586762
tp1566
sS'P1,72,1,C#5,1'
p1567
(F-0.0009633911367936676
F0.13345864661653953
F0.71
F0.13345864661653953
tp1568
sS'P1,88,3,E4,6'
p1569
(F0.0
F-0.07499999999998685
F0.28
F-0.07499999999998685
tp1570
sS'P1,58,3,E4,6'
p1571
(F0.0
F0.0
F0.32
F0.0
tp1572
sS'P1,88,1,A#5,2'
p1573
(F0.0
F-0.0014005602240934056
F0.5
F-0.0014005602240934056
tp1574
sS'P1,91,1,F#5,0'
p1575
(F0.0
F0.23333333333333328
F0.6900000000000001
F0.23333333333333328
tp1576
sS'P1,87,3,B3,2'
p1577
(F0.0
F-0.0556844547563885
F0.31
F-0.0556844547563885
tp1578
sS'P1,58,3,E4,3'
p1579
(F0.0
F-0.22834645669290232
F0.32
F-0.22834645669290232
tp1580
sS'P1,27,1,G5,1'
p1581
(F0.08167938931297314
F0.1314102564102567
F0.63
F0.1314102564102567
tp1582
sS'P1,68,1,B4,3'
p1583
(F0.0015772870662489336
F0.0
F0.56
F0.0
tp1584
sS'P1,80,1,B5,3'
p1585
(F-0.0011135857461034848
F0.2660377358490589
F0.5
F0.2660377358490589
tp1586
sS'P1,43,3,G4,3'
p1587
(F0.0
F-0.7341772151898727
F0.33
F-0.7341772151898727
tp1588
sS'P1,43,3,G4,6'
p1589
(F0.0
F-0.7331378299120264
F0.39
F-0.7331378299120264
tp1590
sS'P1,5,1,B5,4'
p1591
(F0.0
F0.16775244299674164
F0.59
F0.16775244299674164
tp1592
sS'P1,26,3,F#3,4'
p1593
(F0.0
F0.09923664122137336
F0.33
F0.09923664122137336
tp1594
sS'P1,19,1,F#5,2'
p1595
(F0.0
F0.2009345794392493
F0.5700000000000001
F0.2009345794392493
tp1596
sS'P1,32,1,B4,0'
p1597
(F0.0
F-0.0008849557522164209
F0.43
F-0.0008849557522164209
tp1598
sS'P1,32,1,B4,2'
p1599
(F0.0
F0.049230769230773075
F0.42
F0.049230769230773075
tp1600
sS'P1,14,3,B3,1'
p1601
(F0.0
F0.0
F0.4
F0.0
tp1602
sS'P1,28,3,D4,6'
p1603
(F0.0
F0.0
F0.25
F0.0
tp1604
sS'P1,83,1,E5,4'
p1605
(F0.0
F0.12824207492795725
F0.5
F0.12824207492795725
tp1606
sS'P1,26,3,E4,3'
p1607
(F0.0
F-0.060869565217391286
F0.33
F-0.060869565217391286
tp1608
sS'P1,28,3,F#3,1'
p1609
(F0.0
F-0.019656019656015267
F0.39
F-0.019656019656015267
tp1610
sS'P1,26,3,E4,6'
p1611
(F0.0
F0.09923664122137336
F0.33
F0.09923664122137336
tp1612
sS'P1,28,3,F#3,4'
p1613
(F0.0
F0.0
F0.25
F0.0
tp1614
sS'P1,9,1,F#5,2'
p1615
(F0.0
F0.001639344262296949
F0.53
F0.001639344262296949
tp1616
sS'P1,69,3,A3,1'
p1617
(F0.0
F-0.8021582733812995
F0.45
F-0.8021582733812995
tp1618
sS'P1,42,1,D5,3'
p1619
(F-0.001210653753026092
F0.0911764705882359
F0.7000000000000001
F0.0911764705882359
tp1620
sS'P1,90,3,C#4,5'
p1621
(F0.0
F-0.0165289256198643
F0.39
F-0.0165289256198643
tp1622
sS'P1,42,3,F#3,4'
p1623
(F0.0
F-0.7772397094430991
F0.35000000000000003
F-0.7772397094430991
tp1624
sS'P1,82,3,C#4,5'
p1625
(F0.0
F-0.018475750577371386
F0.3
F-0.018475750577371386
tp1626
sS'P1,42,3,F#3,1'
p1627
(F0.0
F-0.7774647887323972
F0.35000000000000003
F-0.7774647887323972
tp1628
sS'P1,48,1,C6,2'
p1629
(F0.0
F0.23293172690763453
F0.52
F0.23293172690763453
tp1630
sS'P1,36,1,D5,1'
p1631
(F3.6637359812630166e-15
F0.0
F0.63
F0.0
tp1632
sS'P1,34,1,C#5,2'
p1633
(F0.0
F0.119718309859147
F0.41000000000000003
F0.119718309859147
tp1634
sS'P1,95,1,C#5,4'
p1635
(F0.0
F-0.0008665511265109616
F0.45
F-0.0008665511265109616
tp1636
sS'P1,11,1,F#5,2'
p1637
(F0.0
F0.1656441717791406
F0.62
F0.1656441717791406
tp1638
sS'P1,74,1,D5,3'
p1639
(F1.0769163338864018e-14
F0.06593406593406412
F0.7000000000000001
F0.06593406593406412
tp1640
sS'P1,76,3,A3,4'
p1641
(F0.0
F-0.8241042345276914
F0.47000000000000003
F-0.8241042345276914
tp1642
sS'P1,61,1,A#5,3'
p1643
(F-0.009202453987735504
F0.1929824561403493
F0.65
F0.1929824561403493
tp1644
sS'P1,89,1,F5,1'
p1645
(F0.0015673981191279829
F-0.047021943573656966
F0.45
F-0.047021943573656966
tp1646
sS'P1,67,3,G4,6'
p1647
(F0.0
F-0.8233618233618274
F0.4
F-0.8233618233618274
tp1648
sS'P1,86,3,B3,5'
p1649
(F0.0
F0.0
F0.39
F0.0
tp1650
sS'P1,85,3,D4,3'
p1651
(F0.0
F-0.03303303303302518
F0.31
F-0.03303303303302518
tp1652
sS'P1,31,1,G5,0'
p1653
(F0.0
F0.058265582655828596
F0.6
F0.058265582655828596
tp1654
sS'P1,61,1,D6,2'
p1655
(F-0.007371007371002936
F0.19018404907974695
F0.7000000000000001
F0.19018404907974695
tp1656
sS'P1,71,3,B3,5'
p1657
(F0.0
F0.0
F0.31
F0.0
tp1658
sS'P1,20,3,B2,0'
p1659
(F0.0
F1.3670886075949378
F0.4
F1.3670886075949378
tp1660
sS'P1,94,1,C#5,3'
p1661
(F2.55351295663786e-15
F0.4334140435835284
F0.7000000000000001
F0.4334140435835284
tp1662
sS'P1,35,3,G4,6'
p1663
(F0.0
F-0.8273809523809531
F0.33
F-0.8273809523809531
tp1664
sS'P1,41,3,E4,4'
p1665
(F0.0
F0.0
F0.39
F0.0
tp1666
sS'P1,80,1,A#5,4'
p1667
(F0.0
F0.2679245283018934
F0.46
F0.2679245283018934
tp1668
sS'P1,35,3,G4,3'
p1669
(F0.0
F-0.8275862068965497
F0.33
F-0.8275862068965497
tp1670
sS'P1,41,3,E4,7'
p1671
(F0.0
F0.0
F0.39
F0.0
tp1672
sS'P1,85,1,G5,1'
p1673
(F0.0013623978201535714
F0.26726726726726946
F0.5700000000000001
F0.26726726726726946
tp1674
sS'P1,38,3,A3,1'
p1675
(F0.0
F-0.8220064724919125
F0.46
F-0.8220064724919125
tp1676
sS'P1,72,3,B3,6'
p1677
(F0.0
F0.0
F0.4
F0.0
tp1678
sS'P1,94,1,A5,0'
p1679
(F0.0
F0.1303191489361718
F0.7000000000000001
F0.1303191489361718
tp1680
sS'P1,49,1,C#5,3'
p1681
(F1.5543122344752192e-15
F0.0
F0.52
F0.0
tp1682
sS'P1,38,3,A3,4'
p1683
(F0.0
F-0.8236914600550951
F0.4
F-0.8236914600550951
tp1684
sS'P1,40,3,C#4,3'
p1685
(F0.0
F0.24334600760456315
F0.35000000000000003
F0.24334600760456315
tp1686
sS'P1,65,3,C#3,0'
p1687
(F0.0
F0.0
F0.28
F0.0
tp1688
sS'P1,68,3,F#4,3'
p1689
(F0.0
F-0.8217821782178202
F0.37
F-0.8217821782178202
tp1690
sS'P1,5,1,F#5,3'
p1691
(F-0.001483679525222048
F0.1628664495114004
F0.53
F0.1628664495114004
tp1692
sS'P1,86,3,G#3,1'
p1693
(F0.0
F-0.03208556149732855
F0.39
F-0.03208556149732855
tp1694
sS'P1,68,3,F#4,6'
p1695
(F0.0
F-0.8233438485804406
F0.37
F-0.8233438485804406
tp1696
sS'P1,49,3,D4,2'
p1697
(F0.0
F-0.7560386473429944
F0.29
F-0.7560386473429944
tp1698
sS'P1,69,1,C#5,2'
p1699
(F0.0
F0.23291925465839958
F0.6900000000000001
F0.23291925465839958
tp1700
sS'P1,60,3,B3,2'
p1701
(F0.004999999999999943
F-0.02750000000001107
F0.32
F-0.02750000000001107
tp1702
sS'P1,85,3,F#3,4'
p1703
(F0.0
F0.0
F0.31
F0.0
tp1704
sS'P1,60,3,B3,5'
p1705
(F0.0
F-0.0023364485981137717
F0.32
F-0.0023364485981137717
tp1706
sS'P1,57,3,F#3,4'
p1707
(F0.0
F-0.8236914600550951
F0.39
F-0.8236914600550951
tp1708
sS'P1,81,1,D5,4'
p1709
(F0.0
F0.0011876484560580103
F0.43
F0.0011876484560580103
tp1710
sS'P1,53,1,E#5,2'
p1711
(F0.0
F0.1657534246575425
F0.56
F0.1657534246575425
tp1712
sS'P1,27,1,E5,4'
p1713
(F0.0
F0.13455149501661312
F0.7000000000000001
F0.13455149501661312
tp1714
sS'P1,49,1,B4,5'
p1715
(F1.4432899320127035e-15
F0.0
F0.45
F0.0
tp1716
sS'P1,51,3,A#2,0'
p1717
(F0.0
F0.0
F0.32
F0.0
tp1718
sS'P1,83,1,C#5,3'
p1719
(F-0.0014409221901990898
F0.12680115273775283
F0.56
F0.12680115273775283
tp1720
sS'P1,71,3,B3,2'
p1721
(F0.0
F-0.037199124726463695
F0.46
F-0.037199124726463695
tp1722
sS'P1,46,1,G5,0'
p1723
(F0.0
F-0.021676989042391348
F0.7000000000000001
F-0.021676989042391348
tp1724
sS'P1,53,3,F#3,1'
p1725
(F0.0
F-0.054794520547933434
F0.46
F-0.054794520547933434
tp1726
sS'P1,49,3,D4,4'
p1727
(F0.0
F-0.75632911392405
F0.29
F-0.75632911392405
tp1728
sS'P1,24,3,E4,3'
p1729
(F0.0
F-0.7796052631578946
F0.31
F-0.7796052631578946
tp1730
sS'P1,3,1,D5,5'
p1731
(F5.551115123125783e-16
F0.20054200542005401
F0.47000000000000003
F0.20054200542005401
tp1732
sS'P1,70,1,F#5,1'
p1733
(F0.0015479876161104134
F0.36856368563685094
F0.75
F0.36856368563685094
tp1734
sS'P1,1,1,B4,5'
p1735
(F0.0014836795252225476
F0.16708860759493666
F0.52
F0.16708860759493666
tp1736
sS'P1,84,3,B3,5'
p1737
(F0.0
F0.0
F0.31
F0.0
tp1738
sS'P1,43,1,F#5,0'
p1739
(F0.0
F1.4432899320127035e-15
F0.61
F1.4432899320127035e-15
tp1740
sS'P1,77,1,A4,1'
p1741
(F-0.001718213058409912
F0.21682847896439744
F0.7000000000000001
F0.21682847896439744
tp1742
sS'P1,59,3,E4,3'
p1743
(F0.0
F-0.799352750809065
F0.47000000000000003
F-0.799352750809065
tp1744
sS'P1,48,3,F#3,1'
p1745
(F0.0
F-0.002008032128508641
F0.29
F-0.002008032128508641
tp1746
sS'P1,83,3,A#2,0'
p1747
(F0.0
F-0.26801152737751777
F0.39
F-0.26801152737751777
tp1748
sS'P1,46,3,D4,2'
p1749
(F0.012386850881379089
F-0.04144830871842464
F0.43
F-0.04144830871842464
tp1750
sS'P1,92,3,D4,6'
p1751
(F0.0
F0.0
F0.33
F0.0
tp1752
sS'P1,72,3,C#4,3'
p1753
(F0.0
F0.33270676691728873
F0.4
F0.33270676691728873
tp1754
sS'P1,92,3,D4,3'
p1755
(F0.0
F-0.061881188118814046
F0.39
F-0.061881188118814046
tp1756
sS'P1,46,3,D4,5'
p1757
(F0.015098722415795443
F0.02838427947598256
F0.43
F0.02838427947598256
tp1758
sS'P1,70,3,F#4,3'
p1759
(F0.0
F-0.06501547987613987
F0.51
F-0.06501547987613987
tp1760
sS'P1,24,3,A#3,5'
p1761
(F0.0
F-0.7794117647058809
F0.31
F-0.7794117647058809
tp1762
sS'P1,23,3,E4,6'
p1763
(F0.0
F-0.02362204724409811
F0.32
F-0.02362204724409811
tp1764
sS'P1,70,3,F#4,6'
p1765
(F0.0
F0.0
F0.51
F0.0
tp1766
sS'P1,23,3,E4,3'
p1767
(F0.0
F-0.02433090024331208
F0.32
F-0.02433090024331208
tp1768
sS'P1,59,3,E4,6'
p1769
(F0.0
F-0.7850746268656688
F0.39
F-0.7850746268656688
tp1770
sS'P1,15,4,F#3,0'
p1771
(F0.0
F0.0
F0.42
F0.0
tp1772
sS'P1,9,1,C#5,3'
p1773
(F0.001639344262296949
F0.002710027100271
F0.53
F0.002710027100271
tp1774
sS'P1,81,1,F#5,2'
p1775
(F0.0
F1.2989609388114332e-14
F0.43
F1.2989609388114332e-14
tp1776
sS'P1,40,3,F#2,0'
p1777
(F0.0
F1.444866920152092
F0.39
F1.444866920152092
tp1778
sS'P1,57,1,D5,3'
p1779
(F-2.7755575615628914e-15
F-0.07317073170732225
F0.47000000000000003
F-0.07317073170732225
tp1780
sS'P1,77,1,B4,0'
p1781
(F0.0
F-0.001718213058409912
F0.72
F-0.001718213058409912
tp1782
sS'P1,56,3,F#3,1'
p1783
(F0.0
F-0.02793296089382269
F0.29
F-0.02793296089382269
tp1784
sS'P1,63,1,G5,0'
p1785
(F0.0
F-0.06544502617801873
F0.59
F-0.06544502617801873
tp1786
sS'P1,64,1,B4,2'
p1787
(F0.0
F0.29894875164258605
F0.46
F0.29894875164258605
tp1788
sS'P1,35,3,A2,0'
p1789
(F0.0
F0.0
F0.39
F0.0
tp1790
sS'P1,64,1,B4,0'
p1791
(F0.0
F0.0
F0.36
F0.0
tp1792
sS'P1,12,3,D4,6'
p1793
(F0.0
F0.0029940119760479065
F0.42
F0.0029940119760479065
tp1794
sS'P1,12,3,D4,3'
p1795
(F0.0
F-0.04166666666666663
F0.42
F-0.04166666666666663
tp1796
sS'P1,59,1,E5,4'
p1797
(F0.0
F0.001492537313439679
F0.51
F0.001492537313439679
tp1798
sS'P1,43,1,C#5,3'
p1799
(F-0.0014662756598293192
F0.101408450704226
F0.61
F0.101408450704226
tp1800
sS'P1,8,3,B2,0'
p1801
(F0.0
F0.10975609756097557
F0.42
F0.10975609756097557
tp1802
sS'P1,4,3,D4,3'
p1803
(F0.0
F0.0
F0.28
F0.0
tp1804
sS'P1,67,1,E5,1'
p1805
(F1.3433698597964394e-14
F0.1339031339031308
F0.48
F0.1339031339031308
tp1806
sS'P1,4,3,D4,6'
p1807
(F0.0
F0.0
F0.28
F0.0
tp1808
sS'P1,17,1,F#5,2'
p1809
(F0.0
F3.3306690738754696e-16
F0.49
F3.3306690738754696e-16
tp1810
sS'P1,37,1,C#5,2'
p1811
(F0.0
F0.13880597014924934
F0.61
F0.13880597014924934
tp1812
sS'P1,66,3,A3,2'
p1813
(F0.0
F-0.8227513227513215
F0.28
F-0.8227513227513215
tp1814
sS'P1,65,3,E4,3'
p1815
(F0.0
F0.0
F0.28
F0.0
tp1816
sS'P1,65,3,E4,6'
p1817
(F0.0
F-0.0023923444976119423
F0.28
F-0.0023923444976119423
tp1818
sS'P1,59,1,G5,1'
p1819
(F9.880984919163893e-15
F0.1326860841423925
F0.59
F0.1326860841423925
tp1820
sS'P1,75,1,E5,1'
p1821
(F0.0017064846416506851
F0.17008797653958763
F0.52
F0.17008797653958763
tp1822
sS'P1,82,3,E4,6'
p1823
(F0.0
F-0.018475750577371386
F0.3
F-0.018475750577371386
tp1824
sS'P1,7,1,C#6,2'
p1825
(F0.0
F0.1686217008797649
F0.65
F0.1686217008797649
tp1826
sS'P1,15,1,C#5,4'
p1827
(F0.0
F0.03444180522564999
F0.53
F0.03444180522564999
tp1828
sS'P1,89,1,F#5,0'
p1829
(F0.0
F-0.001567398119116603
F0.5
F-0.001567398119116603
tp1830
sS'P1,9,1,B4,5'
p1831
(F0.0013550135501350091
F0.003003003003002997
F0.48
F0.003003003003002997
tp1832
sS'P1,31,1,D5,3'
p1833
(F-1.7208456881689926e-15
F0.060606060606060795
F0.6
F0.060606060606060795
tp1834
sS'P1,70,3,D3,0'
p1835
(F0.0
F0.0
F0.51
F0.0
tp1836
sS'P1,74,1,G5,0'
p1837
(F0.0
F5.88418203051333e-15
F0.6
F5.88418203051333e-15
tp1838
sS'P1,25,3,D4,3'
p1839
(F0.0
F-0.7774086378737535
F0.29
F-0.7774086378737535
tp1840
sS'P1,19,3,C#4,2'
p1841
(F0.0
F-0.778816199376948
F0.47000000000000003
F-0.778816199376948
tp1842
sS'P1,19,3,C#4,5'
p1843
(F0.0
F-0.7784810126582272
F0.47000000000000003
F-0.7784810126582272
tp1844
sS'P1,83,3,E4,3'
p1845
(F0.0
F-0.8011527377521603
F0.47000000000000003
F-0.8011527377521603
tp1846
sS'P1,66,1,G5,0'
p1847
(F0.0
F0.002645502645506226
F0.46
F0.002645502645506226
tp1848
sS'P1,25,3,D4,6'
p1849
(F0.0
F-0.7774086378737535
F0.29
F-0.7774086378737535
tp1850
sS'P1,52,3,F#3,1'
p1851
(F0.0
F-0.052219321148823994
F0.39
F-0.052219321148823994
tp1852
sS'P1,51,3,E4,6'
p1853
(F0.0
F-0.7787356321839063
F0.39
F-0.7787356321839063
tp1854
sS'P1,52,3,F#3,4'
p1855
(F0.0
F0.0
F0.39
F0.0
tp1856
sS'P1,56,1,A#5,2'
p1857
(F0.0
F1.6542323066914832e-14
F0.53
F1.6542323066914832e-14
tp1858
sS'P1,61,1,C#6,1'
p1859
(F-0.003685503685501468
F0.19325153374232915
F0.65
F0.19325153374232915
tp1860
sS'P1,96,3,B2,2'
p1861
(F0.0
F-9.325873406851315e-15
F0.25
F-9.325873406851315e-15
tp1862
sS'P1,82,3,C#4,2'
p1863
(F0.0
F-0.017817371937641102
F0.3
F-0.017817371937641102
tp1864
sS'P1,32,3,D3,3'
p1865
(F0.0
F0.2990291262135909
F0.34
F0.2990291262135909
tp1866
sS'P1,64,3,D3,3'
p1867
(F0.0
F0.1979345955249557
F0.34
F0.1979345955249557
tp1868
sS'P1,31,1,C#5,4'
p1869
(F0.0
F0.06177156177156351
F0.6
F0.06177156177156351
tp1870
sS'P1,27,3,F#3,1'
p1871
(F0.0
F-0.666666666666666
F0.39
F-0.666666666666666
tp1872
sS'P1,9,3,F#3,1'
p1873
(F0.0
F-0.7999999999999993
F0.34
F-0.7999999999999993
tp1874
sS'P1,27,3,F#3,4'
p1875
(F0.0
F-0.6677740863787365
F0.33
F-0.6677740863787365
tp1876
sS'P1,15,1,F#5,1'
p1877
(F-1.3877787807814457e-15
F0.2351543942992879
F0.59
F0.2351543942992879
tp1878
sS'P1,9,3,F#3,4'
p1879
(F0.0
F-0.799457994579946
F0.34
F-0.799457994579946
tp1880
sS'P1,8,1,G5,3'
p1881
(F-1.6653345369377348e-16
F0.13291139240506367
F0.62
F0.13291139240506367
tp1882
sS'P1,16,3,B3,0'
p1883
(F0.0
F-0.6333333333333333
F0.32
F-0.6333333333333333
tp1884
sS'P1,13,3,D3,0'
p1885
(F0.0
F1.4324324324324338
F0.42
F1.4324324324324338
tp1886
sS'P1,39,3,G3,4'
p1887
(F0.0
F0.0
F0.39
F0.0
tp1888
sS'P1,27,1,C#5,3'
p1889
(F1.1102230246251565e-15
F0.13289036544850538
F0.63
F0.13289036544850538
tp1890
sS'P1,93,1,B5,4'
p1891
(F0.0
F0.3441176470588122
F0.66
F0.3441176470588122
tp1892
sS'P1,10,1,A#4,0'
p1893
(F0.0
F0.0
F0.4
F0.0
tp1894
sS'P1,66,3,A3,5'
p1895
(F0.0
F-0.8217522658610267
F0.28
F-0.8217522658610267
tp1896
sS'P1,63,1,B4,2'
p1897
(F0.0
F3.3306690738754696e-15
F0.51
F3.3306690738754696e-15
tp1898
sS'P1,93,3,D3,0'
p1899
(F0.0
F1.1529411764705861
F0.48
F1.1529411764705861
tp1900
sS'P1,78,1,D5,3'
p1901
(F0.0010799136069095105
F0.19534883720930027
F0.8300000000000001
F0.19534883720930027
tp1902
sS'P1,50,1,A#4,0'
p1903
(F0.0
F-0.0017985611510775712
F0.44
F-0.0017985611510775712
tp1904
sS'P1,27,3,E4,3'
p1905
(F0.0
F-0.666666666666666
F0.39
F-0.666666666666666
tp1906
sS'P1,69,1,A4,1'
p1907
(F-1.149080830487037e-14
F0.2329192546583897
F0.63
F0.2329192546583897
tp1908
sS'P1,27,3,E4,6'
p1909
(F0.0
F-0.6677740863787365
F0.33
F-0.6677740863787365
tp1910
sS'P1,25,1,G5,1'
p1911
(F-2.7755575615628914e-15
F0.0
F0.7000000000000001
F0.0
tp1912
sS'P1,57,3,B2,0'
p1913
(F0.0
F0.0
F0.27
F0.0
tp1914
sS'P1,44,1,C#5,2'
p1915
(F0.0
F0.0015479876160997552
F0.54
F0.0015479876160997552
tp1916
sS'P1,39,3,G3,1'
p1917
(F0.0
F-0.04494382022472898
F0.39
F-0.04494382022472898
tp1918
sS'P1,79,1,F#6,2'
p1919
(F0.0
F0.26625659050966477
F0.56
F0.26625659050966477
tp1920
sS'P1,59,1,F#5,2'
p1921
(F0.0
F-0.0016181229773551409
F0.59
F-0.0016181229773551409
tp1922
sS'P1,59,1,F#5,0'
p1923
(F0.0
F0.13354037267081997
F0.59
F0.13354037267081997
tp1924
sS'P1,5,1,E#5,2'
p1925
(F0.0
F0.164688427299704
F0.53
F0.164688427299704
tp1926
sS'P1,77,3,A3,1'
p1927
(F0.0
F-0.8213058419243953
F0.64
F-0.8213058419243953
tp1928
sS'P1,77,3,A3,4'
p1929
(F0.0
F-0.8220064724919125
F0.56
F-0.8220064724919125
tp1930
sS'P1,15,1,B4,2'
p1931
(F0.0
F0.0320665083135403
F0.53
F0.0320665083135403
tp1932
sS'P1,33,1,E5,3'
p1933
(F0.0013550135501373406
F0.002710027100270963
F0.45
F0.002710027100270963
tp1934
sS'P1,58,3,F#3,4'
p1935
(F0.0
F0.0
F0.32
F0.0
tp1936
sS'P1,58,3,F#3,1'
p1937
(F0.0
F-0.22834645669290232
F0.32
F-0.22834645669290232
tp1938
sS'P1,3,3,E4,3'
p1939
(F0.0
F-0.8042813455657494
F0.38
F-0.8042813455657494
tp1940
sS'P1,18,3,E4,3'
p1941
(F0.0
F-0.024691358024691357
F0.35000000000000003
F-0.024691358024691357
tp1942
sS'P1,94,1,G5,5'
p1943
(F0.0012106537530188755
F-0.10411622276030441
F0.66
F-0.10411622276030441
tp1944
sS'P1,88,1,G5,5'
p1945
(F7.105427357601002e-15
F0.0
F0.5
F0.0
tp1946
sS'P1,18,3,E4,6'
p1947
(F0.0
F-0.029673590504452396
F0.35000000000000003
F-0.029673590504452396
tp1948
sS'P1,3,3,E4,6'
p1949
(F0.0
F-0.7344827586206895
F0.31
F-0.7344827586206895
tp1950
sS'P1,94,1,G5,1'
p1951
(F1.2212453270876722e-15
F0.12983425414364705
F0.63
F0.12983425414364705
tp1952
sS'P1,85,3,B3,5'
p1953
(F0.0
F0.0
F0.31
F0.0
tp1954
sS'P1,29,1,F#6,0'
p1955
(F0.0
F0.2377892030848312
F0.65
F0.2377892030848312
tp1956
sS'P1,28,3,B2,0'
p1957
(F0.0
F-0.06336088154271025
F0.39
F-0.06336088154271025
tp1958
sS'P1,21,1,D6,5'
p1959
(F0.0012224938875308178
F-0.024449877750610804
F0.74
F-0.024449877750610804
tp1960
sS'P1,66,3,D4,6'
p1961
(F0.0
F-0.8217522658610267
F0.28
F-0.8217522658610267
tp1962
sS'P1,22,3,B3,2'
p1963
(F0.0
F-0.022271714922043606
F0.34
F-0.022271714922043606
tp1964
sS'P1,22,3,B3,5'
p1965
(F0.0
F-0.028818443804039084
F0.34
F-0.028818443804039084
tp1966
sS'P1,46,1,D5,3'
p1967
(F-0.00871080139373287
F0.39956331877729295
F0.8
F0.39956331877729295
tp1968
sS'P1,17,1,C#5,3'
p1969
(F3.3306690738754696e-16
F0.0
F0.46
F0.0
tp1970
sS'P1,27,1,F#5,2'
p1971
(F0.0
F0.13141025641025772
F0.7000000000000001
F0.13141025641025772
tp1972
sS'P1,11,1,G5,1'
p1973
(F0.001718213058419793
F0.1687116564417177
F0.62
F0.1687116564417177
tp1974
sS'P1,62,3,C#4,2'
p1975
(F0.0
F-0.3236994219653161
F0.36
F-0.3236994219653161
tp1976
sS'P1,59,1,D5,5'
p1977
(F0.001492537313439679
F0.002890173410404632
F0.51
F0.002890173410404632
tp1978
sS'P1,75,1,F#5,0'
p1979
(F0.0
F0.0017064846416506851
F0.59
F0.0017064846416506851
tp1980
sS'P1,83,1,F#5,2'
p1981
(F0.0
F0.12824207492795725
F0.56
F0.12824207492795725
tp1982
sS'P1,8,3,E4,3'
p1983
(F0.0
F-0.777439024390244
F0.35000000000000003
F-0.777439024390244
tp1984
sS'P1,8,3,C#4,2'
p1985
(F0.0
F-0.777439024390244
F0.35000000000000003
F-0.777439024390244
tp1986
sS'P1,10,3,F#3,1'
p1987
(F0.0
F-0.05865102639295783
F0.32
F-0.05865102639295783
tp1988
sS'P1,8,3,E4,6'
p1989
(F0.0
F-0.7784810126582272
F0.35000000000000003
F-0.7784810126582272
tp1990
sS'P1,60,1,B4,0'
p1991
(F0.0
F0.0
F0.37
F0.0
tp1992
sS'P1,10,3,F#3,4'
p1993
(F0.0
F-0.052910052910054683
F0.32
F-0.052910052910054683
tp1994
sS'P1,6,3,G#3,1'
p1995
(F0.0
F-0.05943152454780409
F0.35000000000000003
F-0.05943152454780409
tp1996
sS'P1,76,1,D5,1'
p1997
(F-0.001567398119116603
F0.13355048859934537
F0.68
F0.13355048859934537
tp1998
sS'P1,70,3,A3,1'
p1999
(F0.0
F-0.06501547987613987
F0.51
F-0.06501547987613987
tp2000
sS'P1,90,1,A#4,0'
p2001
(F0.0
F0.0027548209366390357
F0.4
F0.0027548209366390357
tp2002
sS'P1,73,3,F#3,2'
p2003
(F0.0
F-0.0805555555555556
F0.33
F-0.0805555555555556
tp2004
sS'P1,70,1,D5,3'
p2005
(F0.0013550135501281257
F0.3684210526315774
F0.75
F0.3684210526315774
tp2006
sS'P1,12,1,B4,0'
p2007
(F0.0
F0.0
F0.44
F0.0
tp2008
sS'P1,30,1,D5,4'
p2009
g271
sS'P1,1,3,D4,3'
p2010
(F0.0
F-0.7321937321937321
F0.31
F-0.7321937321937321
tp2011
sS'P1,37,3,A3,4'
p2012
(F0.0
F-0.8238805970149266
F0.35000000000000003
F-0.8238805970149266
tp2013
sS'P1,57,3,D4,3'
p2014
(F0.0
F-0.823170731707318
F0.39
F-0.823170731707318
tp2015
sS'P1,1,3,D4,6'
p2016
(F0.0
F-0.7329376854599408
F0.31
F-0.7329376854599408
tp2017
sS'P1,37,3,A3,1'
p2018
(F0.0
F-0.8221476510067085
F0.39
F-0.8221476510067085
tp2019
sS'P1,30,1,G5,1'
p2020
(F0.0014492753623188692
F0.0723589001447179
F0.84
F0.0723589001447179
tp2021
sS'P1,95,3,B3,0'
p2022
(F0.0
F-0.8009367681498862
F0.61
F-0.8009367681498862
tp2023
sS'P1,79,3,G3,1'
p2024
(F0.0
F0.8330404217926173
F0.34
F0.8330404217926173
tp2025
sS'P1,80,3,A#2,3'
p2026
(F0.0
F0.26730769230768997
F0.39
F0.26730769230768997
tp2027
sS'P1,61,1,F#6,0'
p2028
(F0.0
F0.19533169533169847
F0.7000000000000001
F0.19533169533169847
tp2029
sS'P1,14,1,D5,4'
p2030
(F0.0
F0.431232091690545
F0.74
F0.431232091690545
tp2031
sS'P1,3,1,E5,4'
p2032
(F0.0
F0.20000000000000073
F0.52
F0.20000000000000073
tp2033
sS'P1,25,3,B3,2'
p2034
(F0.0
F-0.7774086378737535
F0.29
F-0.7774086378737535
tp2035
sS'P1,21,3,D4,6'
p2036
(F0.0
F-0.024449877750610804
F0.35000000000000003
F-0.024449877750610804
tp2037
sS'P1,25,3,B3,5'
p2038
(F0.0
F-0.7774086378737535
F0.29
F-0.7774086378737535
tp2039
sS'P1,21,3,D4,3'
p2040
(F0.0
F-0.030674846625767582
F0.35000000000000003
F-0.030674846625767582
tp2041
sS'P1,92,3,B2,0'
p2042
(F0.0
F-0.33142857142856275
F0.39
F-0.33142857142856275
tp2043
sS'P1,45,3,E4,5'
p2044
(F0.0
F-0.8145695364238399
F0.39
F-0.8145695364238399
tp2045
sS'P1,70,3,A3,4'
p2046
(F0.0
F0.0
F0.51
F0.0
tp2047
sS'P1,45,3,E4,2'
p2048
(F0.0
F-0.8145695364238441
F0.46
F-0.8145695364238441
tp2049
sS'P1,31,3,E4,3'
p2050
(F0.0
F-0.7785547785547778
F0.34
F-0.7785547785547778
tp2051
sS'P1,11,3,F#3,1'
p2052
(F0.0
F-0.8006134969325155
F0.36
F-0.8006134969325155
tp2053
sS'P1,40,1,C#5,3'
p2054
(F7.771561172376096e-16
F0.1385869565217393
F0.7000000000000001
F0.1385869565217393
tp2055
sS'P1,40,1,C#5,1'
p2056
(F1.3322676295501878e-15
F0.13878326996197743
F0.7000000000000001
F0.13878326996197743
tp2057
sS'P1,11,3,F#3,4'
p2058
(F0.0
F-0.8013029315960916
F0.36
F-0.8013029315960916
tp2059
ssS'tempo_deviations'
p2060
(dp2061
(I59
I0
tp2062
F1.1681446117848393
s(I64
I0
tp2063
F0.7346534472552971
s(I12
I1
tp2064
F1.044840458318641
s(I85
I0
tp2065
F1.0249116212389737
s(I41
I2
tp2066
F1.0419461634202543
s(I90
I0
tp2067
F0.9846664005096954
s(I38
I1
tp2068
F1.2172898543517934
s(I62
I2
tp2069
F0.917420890231012
s(I15
I1
tp2070
F0.8934502731465833
s(I48
I1
tp2071
F0.7553063554110699
s(I93
I2
tp2072
F1.1063016617491346
s(I25
I1
tp2073
F1.2496430730721326
s(I74
I1
tp2074
F1.2373110690615634
s(I27
I2
tp2075
F1.2496430730721326
s(I51
I1
tp2076
F1.1681446117848147
s(I32
I2
tp2077
F0.5786808692226361
s(I4
I0
tp2078
F1.0193565447011124
s(I77
I1
tp2079
F1.292586134002467
s(I9
I0
tp2080
F1.1791302977890565
s(I30
I0
tp2081
F1.0902683043324952
s(I79
I2
tp2082
F0.6610589894458879
s(I35
I0
tp2083
F1.1979062579449355
s(I84
I2
tp2084
F0.7969122139718557
s(I40
I0
tp2085
F1.0111359274051293
s(I61
I0
tp2086
F0.924183206375215
s(I17
I2
tp2087
F1.0030468399858954
s(I66
I0
tp2088
F0.826686956032315
s(I14
I1
tp2089
F1.0362054132085776
s(I38
I2
tp2090
F1.0362054132085776
s(I87
I0
tp2091
F1.0084251072244208
s(I92
I0
tp2092
F1.074693042842045
s(I24
I1
tp2093
F1.2373110690615496
s(I69
I2
tp2094
F1.1681446117848393
s(I1
I1
tp2095
F1.0716312393011709
s(I50
I1
tp2096
F0.8321738163599705
s(I74
I2
tp2097
F0.9795379296737471
s(I3
I2
tp2098
F1.2970433275679696
s(I27
I1
tp2099
F1.2055851442138192
s(I76
I1
tp2100
F1.1791302977890754
s(I8
I2
tp2101
F1.1903245727680756
s(I53
I1
tp2102
F1.0305275753279877
s(I6
I0
tp2103
F0.9898488552492396
s(I55
I2
tp2104
F0.6914385385932056
s(I79
I1
tp2105
F0.5181027066042888
s(I11
I0
tp2106
F1.2925861340024443
s(I60
I2
tp2107
F0.8788377686792459
s(I16
I0
tp2108
F0.8358723666549129
s(I89
I1
tp2109
F1.157361738445248
s(I37
I0
tp2110
F1.306050572898283
s(I42
I0
tp2111
F1.0777723925349991
s(I91
I2
tp2112
F1.1467761127887461
s(I14
I2
tp2113
F1.0777723925349887
s(I63
I0
tp2114
F0.9846664005096954
s(I96
I2
tp2115
F0.4872313018066156
s(I68
I0
tp2116
F1.0057287834083153
s(I73
I0
tp2117
F0.8955775357016924
s(I45
I2
tp2118
F1.245505182101699
s(I94
I0
tp2119
F1.000379162219978
s(I26
I1
tp2120
F1.0902683043324952
s(I50
I2
tp2121
F0.9427131954754688
s(I3
I1
tp2122
F1.15028307337832
s(I52
I1
tp2123
F0.9820954699600817
s(I81
I2
tp2124
F0.8934502731465833
s(I29
I1
tp2125
F1.0998320613880346
s(I78
I1
tp2126
F1.044840458318641
s(I31
I2
tp2127
F0.8767891957918694
s(I55
I1
tp2128
F0.8529309863825748
s(I88
I1
tp2129
F1.0536206302372773
s(I36
I2
tp2130
F1.1432904711085403
s(I65
I1
tp2131
F0.6927119060676109
s(I13
I0
tp2132
F1.1261753442955422
s(I18
I0
tp2133
F0.8808959367557622
s(I67
I2
tp2134
F1.0716312393011453
s(I91
I1
tp2135
F1.1903245727680756
s(I39
I0
tp2136
F1.1295572522363782
s(I72
I2
tp2137
F0.7070348966065896
s(I44
I0
tp2138
F1.0595565211118683
s(I49
I0
tp2139
F0.8212719759709851
s(I21
I2
tp2140
F0.9196639730922029
s(I70
I0
tp2141
F1.1161500444946668
s(I2
I1
tp2142
F0.8358723666549129
s(I26
I2
tp2143
F1.148526916014388
s(I75
I0
tp2144
F1.033358695040386
s(I80
I0
tp2145
F0.8212719759709729
s(I28
I1
tp2146
F0.924183206375215
s(I57
I2
tp2147
F1.0362054132085776
s(I5
I1
tp2148
F1.1161500444946921
s(I54
I1
tp2149
F0.9546765609002902
s(I78
I2
tp2150
F0.81240294815272
s(I7
I2
tp2151
F1.0084251072244255
s(I31
I1
tp2152
F0.9498549621078524
s(I64
I1
tp2153
F0.659899236832826
s(I12
I2
tp2154
F0.9719446123894353
s(I41
I1
tp2155
F1.0625496186291101
s(I90
I1
tp2156
F1.0998320613880785
s(I43
I2
tp2157
F1.1030573753510464
s(I67
I1
tp2158
F1.1063016617491792
s(I15
I0
tp2159
F0.9403564124867744
s(I48
I2
tp2160
F0.7522851299894182
s(I20
I0
tp2161
F0.9129673907638602
s(I93
I1
tp2162
F1.1063016617491792
s(I25
I0
tp2163
F1.1467761127887461
s(I46
I0
tp2164
F1.045808799799943
s(I95
I2
tp2165
F0.6518935268539254
s(I2
I2
tp2166
F1.0277119262150567
s(I51
I0
tp2167
F1.1865696056615551
s(I56
I0
tp2168
F0.864695551711979
s(I4
I1
tp2169
F0.9669474678527269
s(I77
I0
tp2170
F1.241394603942951
s(I33
I2
tp2171
F1.019356544701117
s(I82
I0
tp2172
F0.8767891957918555
s(I30
I1
tp2173
F1.0886904920252136
s(I54
I2
tp2174
F1.1467761127887461
s(I7
I1
tp2175
F0.8913330924045282
s(I40
I1
tp2176
F0.7463146130847457
s(I85
I2
tp2177
F1.1030573753510464
s(I17
I1
tp2178
F1.033358695040415
s(I66
I1
tp2179
F0.9950861507796654
s(I90
I2
tp2180
F1.0362054132085385
s(I19
I2
tp2181
F1.1903245727680756
s(I43
I1
tp2182
F1.1903245727680756
s(I92
I1
tp2183
F0.9310459529572028
s(I24
I2
tp2184
F1.1063016617491568
s(I69
I1
tp2185
F1.353030809333461
s(I1
I0
tp2186
F0.6826543829305096
s(I22
I0
tp2187
F1.0808694396399714
s(I71
I2
tp2188
F0.9474623803393046
s(I95
I1
tp2189
F0.8808959367557481
s(I27
I0
tp2190
F1.1485269160143763
s(I76
I2
tp2191
F1.225220081415967
s(I32
I0
tp2192
F0.7803787655491955
s(I53
I0
tp2193
F1.0716312393011662
s(I9
I2
tp2194
F1.0193565447011124
s(I58
I0
tp2195
F0.8977149522546778
s(I6
I1
tp2196
F0.9719446123894331
s(I30
I2
tp2197
F1.0886904920252136
s(I79
I0
tp2198
F0.874750151150481
s(I84
I0
tp2199
F0.9769936753109256
s(I16
I1
tp2200
F0.8037234294758825
s(I89
I0
tp2201
F1.1791302977890754
s(I61
I2
tp2202
F1.0998320613880346
s(I42
I1
tp2203
F1.0595565211118478
s(I66
I2
tp2204
F1.1363823715852321
s(I96
I3
tp2205
F0.4872313018066156
s(I19
I1
tp2206
F1.1717836915723028
s(I68
I1
tp2207
F1.241394603942951
s(I45
I1
tp2208
F1.245505182101671
s(I94
I1
tp2209
F1.0390678591014164
s(I47
I2
tp2210
F0.6156179459815266
s(I71
I1
tp2211
F0.8230690700103196
s(I3
I0
tp2212
F1.093437688938114
s(I52
I2
tp2213
F0.9769936753109256
s(I8
I0
tp2214
F1.1030573753510573
s(I81
I1
tp2215
F0.9744626036132656
s(I29
I0
tp2216
F0.9669474678527247
s(I34
I0
tp2217
F1.0193565447010982
s(I83
I2
tp2218
F1.0839843371605555
s(I6
I2
tp2219
F0.9719446123894331
s(I55
I0
tp2220
F0.8934502731465833
s(I88
I2
tp2221
F1.175445515608488
s(I60
I0
tp2222
F1.0871172398691091
s(I65
I0
tp2223
F0.6474054474951952
s(I37
I2
tp2224
F1.1228136268498754
s(I86
I0
tp2225
F1.0419461634202543
s(I18
I1
tp2226
F0.9287470740610144
s(I42
I2
tp2227
F0.9107568159678238
s(I91
I0
tp2228
F1.1398259545294267
s(I96
I0
tp2229
F0.4872313018066156
s(I44
I1
tp2230
F1.1398259545294267
s(I73
I2
tp2231
F1.027711926215072
s(I21
I1
tp2232
F1.1538115490635295
s(I70
I1
tp2233
F1.164528064999131
s(I94
I2
tp2234
F0.9107568159678087
s(I23
I2
tp2235
F0.9872508267577675
s(I47
I1
tp2236
F0.5451341521662476
s(I80
I1
tp2237
F0.8377339977610468
s(I28
I2
tp2238
F0.924183206375215
s(I57
I1
tp2239
F1.1467761127887461
s(I5
I0
tp2240
F1.1194719196271137
s(I10
I0
tp2241
F1.1295572522363666
s(I59
I2
tp2242
F1.1228136268498983
s(I83
I1
tp2243
F1.0839843371605555
s(I31
I0
tp2244
F1.019356544701117
s(I64
I2
tp2245
F0.494274067010139
s(I36
I0
tp2246
F1.000379162219978
s(I41
I0
tp2247
F1.0221265353117155
s(I13
I2
tp2248
F1.1295572522363724
s(I62
I0
tp2249
F0.9977256365907498
s(I18
I2
tp2250
F1.1161500444946892
s(I67
I0
tp2251
F0.8998625956811224
s(I72
I0
tp2252
F0.9219180514576307
s(I20
I1
tp2253
F0.9820954699600817
s(I93
I0
tp2254
F0.9403564124867663
s(I49
I2
tp2255
F1.1903245727680756
s(I46
I1
tp2256
F1.0752050452445348
s(I70
I2
tp2257
F1.0193565447010982
s(I96
I4
tp2258
F0.4872313018066156
s(I23
I1
tp2259
F0.9151887226148652
s(I56
I1
tp2260
F1.0506775558511823
s(I4
I2
tp2261
F1.0808694396399743
s(I33
I1
tp2262
F1.0419461634202543
s(I82
I1
tp2263
F0.8377339977610468
s(I35
I2
tp2264
F1.119471919627111
s(I59
I1
tp2265
F1.2172898543517934
s(I7
I0
tp2266
F1.1573617384452661
s(I40
I2
tp2267
F0.7150999334500218
s(I12
I0
tp2268
F0.9522596582144564
s(I85
I1
tp2269
F1.1295572522363782
s(I17
I0
tp2270
F0.6901698440269894
s(I38
I0
tp2271
F1.2750595423549618
s(I87
I2
tp2272
F0.7178293225090076
s(I43
I0
tp2273
F1.1063016617491568
s(I92
I2
tp2274
F0.8266869560323398
s(I48
I0
tp2275
F0.8037234294758707
s(I69
I0
tp2276
F1.1865696056615551
s(I25
I2
tp2277
F1.2496430730721326
s(I74
I0
tp2278
F0.9546765609002569
s(I22
I1
tp2279
F0.8377339977610532
s(I46
I2
tp2280
F0.8737341811723746
s(I95
I0
tp2281
F0.942713195475485
s(I32
I1
tp2282
F0.6657390530879783
s(I77
I2
tp2283
F1.2172898543517934
s(I9
I1
tp2284
F1.2332543114580727
s(I58
I1
tp2285
F0.9872508267577854
s(I82
I2
tp2286
F0.8686895265466725
s(I11
I2
tp2287
F1.2252200814159941
s(I35
I1
tp2288
F1.1791302977890754
s(I84
I1
tp2289
F0.924183206375215
s(I16
I2
tp2290
F0.6269042749911847
s(I61
I1
tp2291
F1.1538115490635172
s(I14
I0
tp2292
F1.0193565447011077
s(I63
I2
tp2293
F0.7492879780771023
s(I87
I1
tp2294
F0.8727205684331963
s(I19
I0
tp2295
F1.146776112788758
s(I68
I2
tp2296
F1.1865696056615551
s(I24
I0
tp2297
F1.1030573753510573
s(I45
I0
tp2298
F1.241394603942951
s(I1
I2
tp2299
F1.1161500444946908
s(I50
I0
tp2300
F0.6765154046667471
s(I22
I2
tp2301
F1.0839843371605449
s(I71
I0
tp2302
F0.8998625956811224
s(I76
I0
tp2303
F0.9669474678527247
s(I8
I1
tp2304
F1.146776112788752
s(I81
I0
tp2305
F0.7233510865282837
s(I53
I2
tp2306
F0.864695551711979
s(I34
I1
tp2307
F1.2332543114580867
s(I58
I2
tp2308
F0.9846664005096954
s(I11
I1
tp2309
F1.1538115490635295
s(I60
I1
tp2310
F0.9403564124867663
s(I89
I2
tp2311
F1.1363823715852321
s(I37
I1
tp2312
F1.2622233724654937
s(I86
I1
tp2313
F1.0057287834083153
s(I39
I2
tp2314
F0.8285078524112639
s(I63
I1
tp2315
F0.9219180514576307
s(I96
I1
tp2316
F0.4872313018066156
s(I44
I2
tp2317
F1.1645280649991063
s(I0
I0
tp2318
F0.8548694658970701
s(I73
I1
tp2319
F1.044840458318641
s(I21
I0
tp2320
F1.0716312393011662
s(I26
I0
tp2321
F0.8587729794399777
s(I75
I2
tp2322
F1.1030573753510464
s(I47
I0
tp2323
F0.8212719759709851
s(I80
I2
tp2324
F0.7097029528202151
s(I52
I0
tp2325
F0.8510012782685757
s(I57
I0
tp2326
F1.2750595423549322
s(I29
I2
tp2327
F1.2750595423549618
s(I78
I0
tp2328
F1.0685868323713568
s(I10
I1
tp2329
F1.1030573753510629
s(I34
I2
tp2330
F1.0595565211118478
s(I83
I0
tp2331
F1.0839843371605555
s(I88
I0
tp2332
F0.7952274101367987
s(I36
I1
tp2333
F1.2133631128861728
s(I96
I5
tp2334
F0.4872313018066156
s(I65
I2
tp2335
F0.8998625956811224
s(I13
I1
tp2336
F1.1295572522363666
s(I62
I1
tp2337
F1.0871172398691091
s(I86
I2
tp2338
F1.1363823715852321
s(I15
I2
tp2339
F0.8934502731465761
s(I39
I1
tp2340
F1.0565802387491767
s(I72
I1
tp2341
F0.7247448265794156
s(I20
I2
tp2342
F1.1903245727680756
s(I49
I1
tp2343
F0.9085569202770821
s(I2
I0
tp2344
F0.9522596582144575
s(I51
I2
tp2345
F1.080869439639982
s(I75
I1
tp2346
F1.2837630204597958
s(I23
I0
tp2347
F1.1063016617491568
s(I56
I2
tp2348
F1.1095650884799548
s(I28
I0
tp2349
F1.036205413208558
s(I33
I0
tp2350
F0.7303739126110858
s(I5
I2
tp2351
F1.2252200814159941
s(I54
I0
tp2352
F0.9795379296737121
s(I10
I2
tp2353
F0.9950861507796563
ssS'measure_lengths'
p2354
(dp2355
I0
I1
sI1
I3
sI2
I3
sI3
I3
sI4
I3
sI5
I3
sI6
I3
sI7
I3
sI8
I3
sI9
I3
sI10
I3
sI11
I3
sI12
I3
sI13
I3
sI14
I3
sI15
I3
sI16
I3
sI17
I3
sI18
I3
sI19
I3
sI20
I3
sI21
I3
sI22
I3
sI23
I3
sI24
I3
sI25
I3
sI26
I3
sI27
I3
sI28
I3
sI29
I3
sI30
I3
sI31
I3
sI32
I3
sI33
I3
sI34
I3
sI35
I3
sI36
I3
sI37
I3
sI38
I3
sI39
I3
sI40
I3
sI41
I3
sI42
I3
sI43
I3
sI44
I3
sI45
I3
sI46
I3
sI47
I3
sI48
I3
sI49
I3
sI50
I3
sI51
I3
sI52
I3
sI53
I3
sI54
I3
sI55
I3
sI56
I3
sI57
I3
sI58
I3
sI59
I3
sI60
I3
sI61
I3
sI62
I3
sI63
I3
sI64
I3
sI65
I3
sI66
I3
sI67
I3
sI68
I3
sI69
I3
sI70
I3
sI71
I3
sI72
I3
sI73
I3
sI74
I3
sI75
I3
sI76
I3
sI77
I3
sI78
I3
sI79
I3
sI80
I3
sI81
I3
sI82
I3
sI83
I3
sI84
I3
sI85
I3
sI86
I3
sI87
I3
sI88
I3
sI89
I3
sI90
I3
sI91
I3
sI92
I3
sI93
I3
sI94
I3
sI95
I3
sI96
I6
ss.