(dp0
S'init-silence'
p1
F0.5333333333333333
sS'basedynamics'
p2
F100.0
sS'tempo'
p3
F124.68431676622043
sS'target'
p4
Vmoz-snt331-3-henle-p174-176_nakam.xml
p5
sS'note_deviations'
p6
(dp7
S'P1,65,1,B5,1'
p8
(F0.0005747126436781436
F0.0011494252873562871
F0.69
F0.0011494252873562871
tp9
sS'P1,14,1,E5,3'
p10
(F0.0
F-0.3366877515813687
F0.59
F-0.3366877515813687
tp11
sS'P1,57,1,B4,4'
p12
(F0.029411764705885135
F-0.3910521955260946
F0.96
F-0.3910521955260946
tp13
sS'P1,82,1,E5,4'
p14
(F0.0
F-0.0005617977528115381
F0.93
F-0.0005617977528115381
tp15
sS'P1,82,1,E5,3'
p16
(F-0.0008474576271186862
F0.0
F0.93
F0.0
tp17
sS'P1,109,4,B2,0'
p18
(F0.0
F-0.2939914163090125
F0.64
F-0.2939914163090125
tp19
sS'P1,91,1,E#5,1'
p20
(F-9.992007221626409e-16
F-1.9984014443252818e-15
F0.6
F-1.9984014443252818e-15
tp21
sS'P1,126,4,A3,1'
p22
(F0.024173913043490036
F-0.35269565217390086
F0.68
F-0.35269565217390086
tp23
sS'P1,126,4,A3,0'
p24
(F0.0483478260869668
F0.024173913043490036
F0.91
F0.024173913043490036
tp25
sS'P1,126,4,A3,3'
p26
(F0.021846661170656367
F-0.3421269579554759
F0.68
F-0.3421269579554759
tp27
sS'P1,126,4,A3,2'
p28
(F0.0
F-0.36397361912613224
F0.68
F-0.36397361912613224
tp29
sS'P1,119,1,F#4,0'
p30
(F0.04844814534442455
F-0.37433762301288126
F0.91
F-0.37433762301288126
tp31
sS'P1,6,4,E4,4'
p32
(F0.0
F-0.41008505467800727
F0.62
F-0.41008505467800727
tp33
sS'P1,6,4,E4,6'
p34
(F0.03948967193195618
F-0.1664641555285541
F0.62
F-0.1664641555285541
tp35
sS'P1,6,4,E4,2'
p36
(F0.032877432930036754
F-0.38926880589163604
F0.62
F-0.38926880589163604
tp37
sS'P1,38,1,A4,1'
p38
(F0.0
F-0.42617449664429463
F0.57
F-0.42617449664429463
tp39
sS'P1,4,4,A3,0'
p40
(F0.0
F0.012761020881670304
F0.57
F0.012761020881670304
tp41
sS'P1,55,1,B4,2'
p42
(F0.052978808476602524
F-0.3246701319472295
F0.96
F-0.3246701319472295
tp43
sS'P1,71,1,B#4,7'
p44
(F-0.08951762523191198
F-0.05936920222634667
F0.62
F-0.05936920222634667
tp45
sS'P1,34,2,G4,1'
p46
(F1.9984014443252818e-15
F0.0
F0.63
F0.0
tp47
sS'P1,14,1,G5,4'
p48
(F0.0
F-0.3366877515813687
F0.71
F-0.3366877515813687
tp49
sS'P1,80,1,B4,4'
p50
(F-0.0027716186252756403
F-0.004434589800441424
F0.93
F-0.004434589800441424
tp51
sS'P1,70,1,C#5,4'
p52
(F0.0
F-0.0005617977528039053
F0.64
F-0.0005617977528039053
tp53
sS'P1,70,1,C#5,7'
p54
(F0.0005617977528242779
F0.0
F0.64
F0.0
tp55
sS'P1,108,1,C#6,6'
p56
(F0.0
F0.0011111111111110628
F0.61
F0.0011111111111110628
tp57
sS'P1,106,1,E#5,6'
p58
(F-0.0011135857461034848
F-0.0016703786191551995
F0.61
F-0.0016703786191551995
tp59
sS'P1,108,1,C#6,4'
p60
(F0.0
F0.0011111111111111183
F0.61
F0.0011111111111111183
tp61
sS'P1,106,1,E#5,0'
p62
(F0.0
F-0.0005567928730517424
F0.61
F-0.0005567928730517424
tp63
sS'P1,108,1,C#6,2'
p64
(F-0.0010438413361178456
F-0.0005219206680598942
F0.61
F-0.0005219206680598942
tp65
sS'P1,92,4,G3,3'
p66
(F0.0
F-0.35995623632385343
F0.49
F-0.35995623632385343
tp67
sS'P1,88,1,B5,4'
p68
(F-0.0004472271914083281
F0.0
F0.6
F0.0
tp69
sS'P1,11,1,A5,2'
p70
(F-0.08281972265023496
F0.012320328542094488
F0.6
F0.012320328542094488
tp71
sS'P1,11,1,A5,3'
p72
(F0.14784394250513386
F-0.01129363449691867
F0.6
F-0.01129363449691867
tp73
sS'P1,112,1,B5,4'
p74
(F0.013052743740014972
F-0.3846563665423498
F1.0
F-0.3846563665423498
tp75
sS'P1,60,4,E3,0'
p76
(F0.03531025025710856
F-0.028625299965722162
F0.88
F-0.028625299965722162
tp77
sS'P1,11,1,A5,5'
p78
(F-0.07443531827515226
F-0.07392197125256439
F0.6
F-0.07392197125256439
tp79
sS'P1,109,1,D6,6'
p80
(F9.992007221626409e-16
F-0.0010729613733890808
F0.61
F-0.0010729613733890808
tp81
sS'P1,109,1,D6,4'
p82
(F0.0
F-0.00107296137339008
F0.61
F-0.00107296137339008
tp83
sS'P1,109,1,D6,2'
p84
(F9.992007221626409e-16
F-0.0010729613733890808
F0.61
F-0.0010729613733890808
tp85
sS'P1,109,1,D6,0'
p86
(F0.0
F-0.00107296137339008
F0.61
F-0.00107296137339008
tp87
sS'P1,6,1,G5,4'
p88
(F0.0
F-0.4198055893074119
F0.88
F-0.4198055893074119
tp89
sS'P1,32,1,C5,1'
p90
(F0.0
F-0.4269406392694065
F0.73
F-0.4269406392694065
tp91
sS'P1,43,4,C4,1'
p92
(F-0.08149779735682489
F-0.440528634361229
F0.29
F-0.440528634361229
tp93
sS'P1,43,4,C4,4'
p94
(F-0.1162046908315591
F-0.44562899786780763
F0.29
F-0.44562899786780763
tp95
sS'P1,46,4,D3,3'
p96
(F0.0
F-0.3171806167400894
F0.49
F-0.3171806167400894
tp97
sS'P1,71,4,F#4,2'
p98
(F-0.0011389521640049471
F-0.3462414578587645
F0.54
F-0.3462414578587645
tp99
sS'P1,71,4,F#4,4'
p100
(F0.0
F-0.36270871985157727
F0.54
F-0.36270871985157727
tp101
sS'P1,71,4,F#4,6'
p102
(F-0.0602968460111325
F-0.3858998144712441
F0.54
F-0.3858998144712441
tp103
sS'P1,92,4,C#3,0'
p104
(F0.0
F-0.26367614879649565
F0.49
F-0.26367614879649565
tp105
sS'P1,85,1,E5,4'
p106
(F0.0
F-5.800915303666443e-15
F0.93
F-5.800915303666443e-15
tp107
sS'P1,43,1,G#5,4'
p108
(F-0.1162046908315591
F-0.1487206823027759
F0.65
F-0.1487206823027759
tp109
sS'P1,43,1,G#5,1'
p110
(F-0.08149779735682489
F-0.1640969162995548
F0.65
F-0.1640969162995548
tp111
sS'P1,27,1,G#5,1'
p112
(F-0.08098307816277489
F-0.07957292506043812
F0.82
F-0.07957292506043812
tp113
sS'P1,16,1,C5,1'
p114
(F0.0
F-0.418238993710692
F0.59
F-0.418238993710692
tp115
sS'P1,27,1,G#5,4'
p116
(F-0.16082743197912536
F-0.10445396943719487
F0.92
F-0.10445396943719487
tp117
sS'P1,45,4,E3,0'
p118
(F0.0
F-0.30597014925373267
F0.49
F-0.30597014925373267
tp119
sS'P1,117,1,A4,2'
p120
(F0.008271298593867165
F-0.40984284532672877
F1.0
F-0.40984284532672877
tp121
sS'P1,11,4,C4,4'
p122
(F-0.13039014373716534
F-0.4373716632443517
F0.49
F-0.4373716632443517
tp123
sS'P1,73,4,F#3,0'
p124
(F0.0
F-0.3528138528138537
F0.61
F-0.3528138528138537
tp125
sS'P1,114,1,C#6,1'
p126
(F0.029443064916626915
F-0.07041504079461641
F1.0
F-0.07041504079461641
tp127
sS'P1,89,1,A5,5'
p128
(F0.0005091649694551892
F0.0010183299389103784
F0.6
F0.0010183299389103784
tp129
sS'P1,89,1,A5,2'
p130
(F-0.0010183299389038836
F-0.0005091649694556333
F0.6
F-0.0005091649694556333
tp131
sS'P1,89,1,A5,0'
p132
(F0.0
F0.0005091649694482503
F0.6
F0.0005091649694482503
tp133
sS'P1,110,1,G#5,7'
p134
(F-0.0016556291390683597
F-0.002207505518757813
F0.61
F-0.002207505518757813
tp135
sS'P1,110,1,G#5,4'
p136
(F0.0
F-0.0005518763796894532
F0.61
F-0.0005518763796894532
tp137
sS'P1,100,1,D5,3'
p138
(F0.0011415525114170655
F3.1086244689504383e-15
F0.91
F3.1086244689504383e-15
tp139
sS'P1,31,1,B4,1'
p140
(F0.10344827586206978
F-0.36494252873562916
F0.64
F-0.36494252873562916
tp141
sS'P1,31,1,B4,3'
p142
(F-0.06752873563217754
F-0.01724137931033698
F0.63
F-0.01724137931033698
tp143
sS'P1,54,1,C#5,0'
p144
(F0.0558917764328897
F-0.10875756496974104
F1.02
F-0.10875756496974104
tp145
sS'P1,69,4,A3,5'
p146
(F-0.0011037527593789065
F-0.3399558498896208
F0.49
F-0.3399558498896208
tp147
sS'P1,69,4,A3,1'
p148
(F-1.099120794378905e-14
F-0.3392070484581643
F0.49
F-0.3392070484581643
tp149
sS'P1,69,4,A3,3'
p150
(F0.0
F-0.33885209713024184
F0.49
F-0.33885209713024184
tp151
sS'P1,71,4,G#3,0'
p152
(F0.0
F-0.3223234624145771
F0.67
F-0.3223234624145771
tp153
sS'P1,28,1,C6,0'
p154
(F-0.007827059262018099
F0.0
F1.12
F0.0
tp155
sS'P1,47,4,G#3,5'
p156
(F-0.22331098504383828
F-0.6273852501289339
F0.42
F-0.6273852501289339
tp157
sS'P1,47,4,G#3,7'
p158
(F-0.21093044263776523
F-0.5429087624209625
F0.42
F-0.5429087624209625
tp159
sS'P1,68,1,B5,7'
p160
(F-0.0005694760819983102
F0.0
F0.69
F0.0
tp161
sS'P1,103,1,G#4,6'
p162
(F0.0010101010101010166
F0.0015151515151515804
F0.66
F0.0015151515151515804
tp163
sS'P1,95,1,A5,0'
p164
(F-0.005393743257809169
F-0.0058139534883753785
F0.74
F-0.0058139534883753785
tp165
sS'P1,105,4,F#3,0'
p166
(F0.0
F-0.35918367346938906
F0.58
F-0.35918367346938906
tp167
sS'P1,9,1,C5,0'
p168
(F0.0
F-0.9046137895282532
F0.57
F-0.9046137895282532
tp169
sS'P1,9,1,C5,1'
p170
(F0.198989260897031
F0.032533164876816234
F0.59
F0.032533164876816234
tp171
sS'P1,9,1,C5,3'
p172
(F-0.017845862286796965
F0.05843828715365253
F0.59
F0.05843828715365253
tp173
sS'P1,53,1,A4,2'
p174
(F0.0
F-0.3987237546315362
F0.96
F-0.3987237546315362
tp175
sS'P1,16,1,D5,3'
p176
(F0.00524109014674945
F-0.4129979035639426
F0.67
F-0.4129979035639426
tp177
sS'P1,43,4,E4,5'
p178
(F-0.1162046908315591
F-0.44562899786780763
F0.29
F-0.44562899786780763
tp179
sS'P1,97,1,B4,1'
p180
(F-0.0005422993492353867
F-0.0010845986984707734
F0.86
F-0.0010845986984707734
tp181
sS'P1,108,4,C#4,2'
p182
(F-0.0010438413361178456
F-0.36534446764091977
F0.56
F-0.36534446764091977
tp183
sS'P1,101,4,E4,2'
p184
(F-0.0011037527593789065
F-0.3355408388520932
F0.49
F-0.3355408388520932
tp185
sS'P1,35,1,E5,0'
p186
(F0.0
F-0.41455696202531583
F0.57
F-0.41455696202531583
tp187
sS'P1,101,4,E4,4'
p188
(F0.0
F-0.3344370860927143
F0.49
F-0.3344370860927143
tp189
sS'P1,35,1,E5,2'
p190
(F-0.03101265822784477
F-0.449367088607591
F0.57
F-0.449367088607591
tp191
sS'P1,101,4,E4,6'
p192
(F0.0011037527593849017
F-0.33333333333332926
F0.49
F-0.33333333333332926
tp193
sS'P1,123,4,D#3,3'
p194
(F0.03996023856857889
F-0.3216699801192934
F0.66
F-0.3216699801192934
tp195
sS'P1,123,4,D#3,2'
p196
(F0.03658051689859691
F0.03996023856857889
F0.89
F0.03996023856857889
tp197
sS'P1,63,1,G#5,5'
p198
(F0.021778584392014643
F-0.3856624319419231
F0.96
F-0.3856624319419231
tp199
sS'P1,108,1,A#5,7'
p200
(F0.0011111111111110628
F0.00214592274678112
F0.61
F0.00214592274678112
tp201
sS'P1,118,1,C#6,1'
p202
(F0.06735751295335783
F-0.09067357512954005
F1.0
F-0.09067357512954005
tp203
sS'P1,111,1,C#6,2'
p204
(F-0.0010482180293530097
F-0.0015723270440294312
F0.61
F-0.0015723270440294312
tp205
sS'P1,31,1,A4,2'
p206
(F-0.1293103448275813
F-0.07902298850574085
F0.63
F-0.07902298850574085
tp207
sS'P1,59,4,D3,0'
p208
(F0.04847594564818228
F-0.0020198310686729837
F0.88
F-0.0020198310686729837
tp209
sS'P1,59,4,D3,1'
p210
(F0.03984575835475723
F-0.2970987881013569
F0.7
F-0.2970987881013569
tp211
sS'P1,15,4,B3,4'
p212
(F-0.05098039215686273
F-0.4294117647058824
F0.41
F-0.4294117647058824
tp213
sS'P1,15,4,B3,1'
p214
(F0.00028918449971182536
F-0.3886639676113347
F0.41
F-0.3886639676113347
tp215
sS'P1,19,1,G5,4'
p216
(F0.1826554105909414
F-0.04566385264773826
F0.6
F-0.04566385264773826
tp217
sS'P1,124,1,E5,3'
p218
(F0.019485162674308
F-0.4118698605648764
F0.99
F-0.4118698605648764
tp219
sS'P1,106,4,B3,5'
p220
(F-0.0011135857461034848
F-0.37861915367483423
F0.49
F-0.37861915367483423
tp221
sS'P1,19,1,G5,1'
p222
(F0.0
F-0.4336801040312096
F0.68
F-0.4336801040312096
tp223
sS'P1,19,1,G5,3'
p224
(F-0.03771131339402012
F-0.4713914174252297
F0.68
F-0.4713914174252297
tp225
sS'P1,96,1,D5,2'
p226
(F-0.0018610421836239288
F-0.001240694789084118
F0.91
F-0.001240694789084118
tp227
sS'P1,51,1,A5,5'
p228
(F0.04811393379523325
F-0.36874518860661337
F0.96
F-0.36874518860661337
tp229
sS'P1,110,1,B5,6'
p230
(F-0.0011037527593789065
F-0.0016556291390683597
F0.61
F-0.0016556291390683597
tp231
sS'P1,93,1,D6,0'
p232
(F0.0
F2.9976021664879227e-15
F0.74
F2.9976021664879227e-15
tp233
sS'P1,11,4,E4,2'
p234
(F-0.08243451463790735
F-0.4252696456086321
F0.49
F-0.4252696456086321
tp235
sS'P1,93,1,D6,4'
p236
(F0.0
F0.0005494505494455515
F0.74
F0.0005494505494455515
tp237
sS'P1,11,4,E4,5'
p238
(F-0.13039014373716534
F-0.4373716632443517
F0.49
F-0.4373716632443517
tp239
sS'P1,93,1,D6,6'
p240
(F-0.001098901098911087
F-0.0005494505494655355
F0.74
F-0.0005494505494655355
tp241
sS'P1,71,1,B#4,4'
p242
(F0.0
F-0.02922077922077959
F0.62
F-0.02922077922077959
tp243
sS'P1,47,4,A3,1'
p244
(F0.0
F-0.4040742650850956
F0.49
F-0.4040742650850956
tp245
sS'P1,47,4,A3,3'
p246
(F-0.11165549252191914
F-0.5157297576070148
F0.49
F-0.5157297576070148
tp247
sS'P1,78,1,G#5,2'
p248
(F-7.716050021144838e-15
F-1.1546319456101628e-14
F0.66
F-1.1546319456101628e-14
tp249
sS'P1,30,4,C3,0'
p250
(F0.0
F-0.26805251641137884
F0.59
F-0.26805251641137884
tp251
sS'P1,13,1,G5,4'
p252
(F-0.001612903225806428
F-0.3382009345794397
F0.69
F-0.3382009345794397
tp253
sS'P1,58,1,G#5,7'
p254
(F0.013709677419358801
F-0.36774193548386747
F0.96
F-0.36774193548386747
tp255
sS'P1,107,4,A3,1'
p256
(F0.0
F-0.37777777777777777
F0.49
F-0.37777777777777777
tp257
sS'P1,107,4,A3,3'
p258
(F0.0
F-0.3781512605041991
F0.49
F-0.3781512605041991
tp259
sS'P1,107,4,A3,5'
p260
(F1.0436096431476471e-14
F-0.3781512605041887
F0.49
F-0.3781512605041887
tp261
sS'P1,19,1,F5,5'
p262
(F-0.04566385264773826
F-0.023983115886417994
F0.6
F-0.023983115886417994
tp263
sS'P1,81,1,E5,4'
p264
(F0.0
F-0.0008493771234433511
F0.89
F-0.0008493771234433511
tp265
sS'P1,104,1,B5,4'
p266
(F-0.0008771929824561431
F-0.0017543859649122862
F0.61
F-0.0017543859649122862
tp267
sS'P1,55,4,E3,3'
p268
(F-0.009791535060012901
F-0.36576121288692254
F0.73
F-0.36576121288692254
tp269
sS'P1,55,4,E3,2'
p270
(F0.048641819330381184
F-0.060960202147821274
F0.91
F-0.060960202147821274
tp271
sS'P1,24,4,E3,0'
p272
(F0.008353221957042776
F-0.14498806682577015
F0.36
F-0.14498806682577015
tp273
sS'P1,57,1,A4,2'
p274
(F0.0
F-0.4204639602319797
F0.96
F-0.4204639602319797
tp275
sS'P1,90,1,D#5,5'
p276
(F0.0005399568034547553
F0.0010799136069095105
F0.57
F0.0010799136069095105
tp277
sS'P1,79,1,F#5,2'
p278
(F-0.008235294117657554
F-0.004117647058839435
F0.66
F-0.004117647058839435
tp279
sS'P1,9,4,E4,4'
p280
(F-0.05443234836703226
F-0.41724573594440933
F0.49
F-0.41724573594440933
tp281
sS'P1,9,4,E4,6'
p282
(F-0.033164876816171696
F-0.3840808591282373
F0.49
F-0.3840808591282373
tp283
sS'P1,9,4,E4,2'
p284
(F-0.02721617418351613
F-0.39450492483152066
F0.49
F-0.39450492483152066
tp285
sS'P1,115,1,A5,5'
p286
(F0.04041570438799059
F-0.36258660508083196
F1.0
F-0.36258660508083196
tp287
sS'P1,112,1,F#5,0'
p288
(F0.0
F-0.13782991202346961
F0.61
F-0.13782991202346961
tp289
sS'P1,57,4,A3,1'
p290
(F0.03388090349075923
F-0.32648870636550364
F0.72
F-0.32648870636550364
tp291
sS'P1,57,4,A3,0'
p292
(F0.08008213552361389
F-0.025667351129363913
F0.89
F-0.025667351129363913
tp293
sS'P1,57,4,A3,3'
p294
(F0.029411764705885135
F-0.31151615575807434
F0.72
F-0.31151615575807434
tp295
sS'P1,57,4,A3,2'
p296
(F0.0
F-0.34092792046395937
F0.72
F-0.34092792046395937
tp297
sS'P1,29,1,B5,1'
p298
(F1.7763568394002505e-15
F-0.36830357142856907
F1.0
F-0.36830357142856907
tp299
sS'P1,74,1,G#5,2'
p300
(F1.176836406102666e-14
F-0.0010822510822333653
F0.57
F-0.0010822510822333653
tp301
sS'P1,34,1,D5,0'
p302
(F0.0
F-0.499999999999998
F0.63
F-0.499999999999998
tp303
sS'P1,34,1,D5,3'
p304
(F-5.495603971894525e-15
F-0.40929203539823666
F0.63
F-0.40929203539823666
tp305
sS'P1,44,4,D#4,6'
p306
(F5.662137425588298e-15
F-0.35390946502056886
F0.62
F-0.35390946502056886
tp307
sS'P1,44,4,D#4,4'
p308
(F0.0
F-0.35390946502057447
F0.62
F-0.35390946502057447
tp309
sS'P1,44,4,D#4,2'
p310
(F-0.006249999999999978
F0.0
F0.58
F0.0
tp311
sS'P1,98,1,B4,7'
p312
(F0.0005567928730497718
F0.0
F0.84
F0.0
tp313
sS'P1,42,4,C4,1'
p314
(F-0.027511357900053546
F-0.41645633518425407
F0.43
F-0.41645633518425407
tp315
sS'P1,24,1,G#4,3'
p316
(F-0.07142857142857173
F-0.03571428571428614
F0.62
F-0.03571428571428614
tp317
sS'P1,24,1,G#4,0'
p318
(F-0.005043227665708305
F-0.12887828162290615
F0.55
F-0.12887828162290615
tp319
sS'P1,74,4,C#4,2'
p320
(F1.176836406102666e-14
F-0.3246753246753087
F0.49
F-0.3246753246753087
tp321
sS'P1,74,4,C#4,4'
p322
(F0.0
F-0.3246753246753257
F0.49
F-0.3246753246753257
tp323
sS'P1,74,4,C#4,6'
p324
(F-2.942091015256665e-15
F-0.32467532467532867
F0.49
F-0.32467532467532867
tp325
sS'P1,115,1,B5,7'
p326
(F0.036951501154732114
F-0.3660508083140904
F1.0
F-0.3660508083140904
tp327
sS'P1,10,4,E4,2'
p328
(F-0.03047858942065379
F-0.41561712846347465
F0.49
F-0.41561712846347465
tp329
sS'P1,106,1,F#5,1'
p330
(F-0.0005567928730517424
F-0.0011135857461034848
F0.61
F-0.0011135857461034848
tp331
sS'P1,10,4,E4,6'
p332
(F-0.06902297842483773
F-0.44904402736362037
F0.49
F-0.44904402736362037
tp333
sS'P1,16,1,F5,4'
p334
(F0.00524109014674945
F-0.4129979035639426
F0.79
F-0.4129979035639426
tp335
sS'P1,10,4,E4,4'
p336
(F-0.05894206549118164
F-0.44158919487809156
F0.49
F-0.44158919487809156
tp337
sS'P1,94,1,G#5,7'
p338
(F-0.0035059331175748554
F-0.005393743257809169
F0.74
F-0.005393743257809169
tp339
sS'P1,94,1,G#5,4'
p340
(F0.0
F-0.0018878101402343972
F0.74
F-0.0018878101402343972
tp341
sS'P1,65,1,F#5,4'
p342
(F0.0
F0.0005446623093689484
F0.69
F0.0005446623093689484
tp343
sS'P1,127,1,E5,7'
p344
(F-0.03952095808384354
F-0.44251497005989193
F0.99
F-0.44251497005989193
tp345
sS'P1,21,4,A2,0'
p346
(F0.0
F-0.37759197324414695
F0.69
F-0.37759197324414695
tp347
sS'P1,88,1,D6,2'
p348
(F0.00044722719141487843
F0.0008944543828297569
F0.6
F0.0008944543828297569
tp349
sS'P1,44,4,F3,0'
p350
(F-0.0063965884861474365
F0.0
F0.55
F0.0
tp351
sS'P1,58,4,A3,0'
p352
(F0.06411149825783505
F-0.03658536585366068
F0.89
F-0.03658536585366068
tp353
sS'P1,58,4,A3,1'
p354
(F0.024041811846688077
F-0.3463414634146351
F0.72
F-0.3463414634146351
tp355
sS'P1,58,4,A3,2'
p356
(F-0.0013937282229953274
F-0.3612903225806398
F0.72
F-0.3612903225806398
tp357
sS'P1,58,4,A3,3'
p358
(F0.013709677419358801
F-0.3459677419354804
F0.72
F-0.3459677419354804
tp359
sS'P1,74,1,D#5,5'
p360
(F-0.0010822510822525722
F-0.0021645021645051443
F0.53
F-0.0021645021645051443
tp361
sS'P1,39,4,C3,2'
p362
(F-0.07663316582914481
F-0.4412639405204412
F0.49
F-0.4412639405204412
tp363
sS'P1,87,1,G#4,6'
p364
(F-0.0011235955056230762
F-0.001685393258434642
F0.64
F-0.001685393258434642
tp365
sS'P1,21,1,E5,1'
p366
(F0.0
F-0.43578595317725743
F0.71
F-0.43578595317725743
tp367
sS'P1,21,1,E5,3'
p368
(F-0.038461538461537714
F-0.4742474916387951
F0.71
F-0.4742474916387951
tp369
sS'P1,9,4,C4,3'
p370
(F-0.05443234836703226
F-0.41724573594440933
F0.49
F-0.41724573594440933
tp371
sS'P1,9,4,C4,1'
p372
(F-0.02721617418351613
F-0.39450492483152066
F0.49
F-0.39450492483152066
tp373
sS'P1,9,4,C4,5'
p374
(F-0.033164876816171696
F-0.3840808591282373
F0.49
F-0.3840808591282373
tp375
sS'P1,83,4,E4,2'
p376
(F-9.992007221626409e-16
F-0.30875576036866503
F0.61
F-0.30875576036866503
tp377
sS'P1,83,4,E4,6'
p378
(F-9.992007221626409e-16
F-0.30875576036866503
F0.61
F-0.30875576036866503
tp379
sS'P1,83,4,E4,4'
p380
(F0.0
F-0.308755760368664
F0.61
F-0.308755760368664
tp381
sS'P1,22,2,G#4,0'
p382
(F0.0
F0.07777777777777772
F0.66
F0.07777777777777772
tp383
sS'P1,5,4,E3,0'
p384
(F0.06425702811244971
F0.03212851405622419
F0.61
F0.03212851405622419
tp385
sS'P1,91,1,G#5,3'
p386
(F-2.9976021664879227e-15
F0.0
F0.6
F0.0
tp387
sS'P1,91,1,G#5,5'
p388
(F-0.001677852348994785
F-0.0011185682326652069
F0.6
F-0.0011185682326652069
tp389
sS'P1,101,1,A5,7'
p390
(F0.0005518763796955595
F0.0
F0.91
F0.0
tp391
sS'P1,27,4,E4,5'
p392
(F-0.1384644055162107
F-0.5244129705553461
F0.49
F-0.5244129705553461
tp393
sS'P1,108,4,G3,3'
p394
(F0.0
F-0.36444444444444446
F0.56
F-0.36444444444444446
tp395
sS'P1,75,4,F#3,0'
p396
(F0.0
F-0.350710900473933
F0.61
F-0.350710900473933
tp397
sS'P1,43,4,A3,0'
p398
(F-0.08821822402785928
F-0.08149779735682489
F0.48
F-0.08149779735682489
tp399
sS'P1,43,4,A3,3'
p400
(F-0.07929515418501465
F-0.118336886993606
F0.48
F-0.118336886993606
tp401
sS'P1,120,1,A4,2'
p402
(F0.0
F-0.4226118500604593
F0.88
F-0.4226118500604593
tp403
sS'P1,120,1,A4,0'
p404
(F0.0
F-0.06053811659190711
F1.0
F-0.06053811659190711
tp405
sS'P1,18,2,G4,1'
p406
(F0.0010660980810236476
F0.0
F0.62
F0.0
tp407
sS'P1,10,4,C4,5'
p408
(F-0.06902297842483773
F-0.44904402736362037
F0.49
F-0.44904402736362037
tp409
sS'P1,10,4,C4,1'
p410
(F-0.03047858942065379
F-0.41561712846347465
F0.49
F-0.41561712846347465
tp411
sS'P1,10,4,C4,3'
p412
(F-0.05894206549118164
F-0.44158919487809156
F0.49
F-0.44158919487809156
tp413
sS'P1,47,1,A4,2'
p414
(F-0.1465672990063278
F-0.10083559168925404
F0.59
F-0.10083559168925404
tp415
sS'P1,45,1,G#5,3'
p416
(F0.0010660980810273113
F-0.3859275053304857
F0.71
F-0.3859275053304857
tp417
sS'P1,122,4,A3,1'
p418
(F0.025083612040140202
F-0.3143812709030016
F0.66
F-0.3143812709030016
tp419
sS'P1,122,4,A3,0'
p420
(F0.05016722408026817
F0.025083612040140202
F0.89
F0.025083612040140202
tp421
sS'P1,122,4,A3,3'
p422
(F0.02120717781402781
F-0.30261011419249806
F0.66
F-0.30261011419249806
tp423
sS'P1,122,4,A3,2'
p424
(F0.0
F-0.32381729200652587
F0.66
F-0.32381729200652587
tp425
sS'P1,124,4,E3,3'
p426
(F0.02184087363494236
F-0.33307332293292125
F0.66
F-0.33307332293292125
tp427
sS'P1,124,4,E3,2'
p428
(F0.0
F-0.35491419656786355
F0.66
F-0.35491419656786355
tp429
sS'P1,124,4,E3,1'
p430
(F0.019485162674308
F-0.34751519485161175
F0.66
F-0.34751519485161175
tp431
sS'P1,124,4,E3,0'
p432
(F0.038970325348598456
F0.019485162674308
F0.89
F0.019485162674308
tp433
sS'P1,86,1,B4,7'
p434
(F0.0005470459518703841
F0.0
F0.93
F0.0
tp435
sS'P1,104,1,C#6,3'
p436
(F0.0
F-0.0008771929824561431
F0.61
F-0.0008771929824561431
tp437
sS'P1,46,4,A3,2'
p438
(F-0.001098901098903593
F-0.3186813186813221
F0.43
F-0.3186813186813221
tp439
sS'P1,104,1,C#6,1'
p440
(F0.0
F-0.0008771929824561431
F0.61
F-0.0008771929824561431
tp441
sS'P1,127,1,G#5,5'
p442
(F0.03832335329340426
F-0.38622754491018896
F0.99
F-0.38622754491018896
tp443
sS'P1,15,1,D#5,5'
p444
(F-0.05098039215686273
F-0.3803921568627451
F0.49
F-0.3803921568627451
tp445
sS'P1,103,4,E3,3'
p446
(F0.0010101010101010166
F-0.4060606060606061
F0.65
F-0.4060606060606061
tp447
sS'P1,32,1,A4,0'
p448
(F0.0
F-0.02995391705069328
F0.63
F-0.02995391705069328
tp449
sS'P1,62,1,A4,4'
p450
(F0.0
F-0.4036144578313263
F0.96
F-0.4036144578313263
tp451
sS'P1,17,4,C4,1'
p452
(F-0.05747508305647708
F-0.35614617940199145
F0.61
F-0.35614617940199145
tp453
sS'P1,56,4,A2,0'
p454
(F0.0
F0.0
F0.74
F0.0
tp455
sS'P1,15,1,A5,2'
p456
(F0.00028918449971182536
F-0.3447079236552907
F0.73
F-0.3447079236552907
tp457
sS'P1,36,1,D5,5'
p458
(F0.0326086956521765
F-0.3869565217391274
F0.71
F-0.3869565217391274
tp459
sS'P1,8,1,A4,1'
p460
(F0.142857142857143
F-0.025096525096524713
F0.59
F-0.025096525096524713
tp461
sS'P1,36,1,D5,1'
p462
(F0.0
F0.0
F0.55
F0.0
tp463
sS'P1,53,1,A5,3'
p464
(F0.0
F-0.3987237546315362
F0.96
F-0.3987237546315362
tp465
sS'P1,102,1,E5,3'
p466
(F0.0005668934240223855
F0.0
F0.91
F0.0
tp467
sS'P1,102,1,E5,4'
p468
(F0.0
F-0.0005668934240331824
F0.91
F-0.0005668934240331824
tp469
sS'P1,58,1,C#6,1'
p470
(F0.05156794425086634
F-0.34181184668989956
F0.96
F-0.34181184668989956
tp471
sS'P1,15,1,B5,0'
p472
(F0.04684788895315221
F-0.31203007518796955
F1.1
F-0.31203007518796955
tp473
sS'P1,93,4,B2,0'
p474
(F0.0
F-0.2653508771929797
F0.49
F-0.2653508771929797
tp475
sS'P1,25,4,A3,0'
p476
(F0.0
F0.10575466935890987
F0.49
F0.10575466935890987
tp477
sS'P1,92,1,A#5,7'
p478
(F0.0005470459518480686
F0.0
F0.74
F0.0
tp479
sS'P1,65,4,A3,5'
p480
(F0.0010893246187378969
F-0.3986928104575145
F0.4
F-0.3986928104575145
tp481
sS'P1,52,1,E5,3'
p482
(F0.021288014311273695
F-0.39928443649373546
F0.96
F-0.39928443649373546
tp483
sS'P1,37,1,C5,2'
p484
(F-0.03557312252964756
F-0.45454545454545847
F0.67
F-0.45454545454545847
tp485
sS'P1,90,1,C#5,7'
p486
(F-0.0005399568034586411
F0.0
F0.6
F0.0
tp487
sS'P1,90,1,C#5,4'
p488
(F0.0
F0.14956803455723383
F0.6
F0.14956803455723383
tp489
sS'P1,2,4,C4,3'
p490
(F-0.05118483412322283
F-0.3981900452488688
F0.49
F-0.3981900452488688
tp491
sS'P1,2,4,C4,1'
p492
(F-0.02701421800947873
F-0.36777251184834125
F0.49
F-0.36777251184834125
tp493
sS'P1,105,4,A3,5'
p494
(F-4.6629367034256575e-15
F-0.377551020408169
F0.49
F-0.377551020408169
tp495
sS'P1,105,4,A3,3'
p496
(F0.0
F-0.3775510204081644
F0.49
F-0.3775510204081644
tp497
sS'P1,2,4,C4,5'
p498
(F-0.07013574660633487
F-0.407239819004525
F0.49
F-0.407239819004525
tp499
sS'P1,105,4,A3,1'
p500
(F-4.6629367034256575e-15
F-0.377551020408169
F0.49
F-0.377551020408169
tp501
sS'P1,54,1,B5,3'
p502
(F0.027945888216447834
F-0.38234247063011584
F0.96
F-0.38234247063011584
tp503
sS'P1,53,4,A3,1'
p504
(F0.03173777315296622
F-0.3350676378772106
F0.73
F-0.3350676378772106
tp505
sS'P1,105,4,C#4,4'
p506
(F0.0
F-0.3775510204081644
F0.49
F-0.3775510204081644
tp507
sS'P1,105,4,C#4,6'
p508
(F-4.6629367034256575e-15
F-0.377551020408169
F0.49
F-0.377551020408169
tp509
sS'P1,91,4,A3,1'
p510
(F-1.9984014443252818e-15
F-0.33928571428571697
F0.49
F-0.33928571428571697
tp511
sS'P1,105,4,C#4,2'
p512
(F-4.6629367034256575e-15
F-0.377551020408169
F0.49
F-0.377551020408169
tp513
sS'P1,127,4,D3,1'
p514
(F0.04491017964072985
F-0.28443113772453954
F0.68
F-0.28443113772453954
tp515
sS'P1,115,1,G#4,2'
p516
(F0.03961538461537717
F-0.36346153846154516
F1.0
F-0.36346153846154516
tp517
sS'P1,68,4,G#3,5'
p518
(F0.0011389521640132738
F-0.3394077448747098
F0.49
F-0.3394077448747098
tp519
sS'P1,76,4,E#3,0'
p520
(F0.0
F-0.3556034482758623
F0.61
F-0.3556034482758623
tp521
sS'P1,68,4,G#3,1'
p522
(F3.1086244689504383e-15
F-0.34018264840182244
F0.49
F-0.34018264840182244
tp523
sS'P1,68,4,G#3,3'
p524
(F0.0
F-0.3405466970387231
F0.49
F-0.3405466970387231
tp525
sS'P1,13,4,B3,1'
p526
(F0.029569892473118253
F-0.35430107526881716
F0.49
F-0.35430107526881716
tp527
sS'P1,108,1,C#6,0'
p528
(F0.0
F0.0005219206680580069
F0.61
F0.0005219206680580069
tp529
sS'P1,13,4,B3,5'
p530
(F0.026285046728970363
F-0.34287383177570296
F0.49
F-0.34287383177570296
tp531
sS'P1,92,4,G#3,1'
p532
(F0.0010940919037268904
F-0.3588621444201223
F0.49
F-0.3588621444201223
tp533
sS'P1,89,1,F#5,4'
p534
(F0.0
F0.0005091649694551892
F0.6
F0.0005091649694551892
tp535
sS'P1,89,1,F#5,7'
p536
(F-0.0005091649694348721
F0.0
F0.6
F0.0
tp537
sS'P1,80,4,C#4,0'
p538
(F0.0
F0.0
F0.49
F0.0
tp539
sS'P1,75,1,F#5,0'
p540
(F0.0
F0.0011848341232238435
F0.57
F0.0011848341232238435
tp541
sS'P1,75,1,F#5,2'
p542
(F2.220446049250313e-15
F0.0011848341232260085
F0.57
F0.0011848341232260085
tp543
sS'P1,95,1,E#5,4'
p544
(F-0.005285412262169831
F-0.02199621570482657
F0.74
F-0.02199621570482657
tp545
sS'P1,95,1,E#5,7'
p546
(F-0.0186849574266843
F0.0
F0.68
F0.0
tp547
sS'P1,118,1,B5,3'
p548
(F0.022575869726123687
F-0.4041450777202116
F1.0
F-0.4041450777202116
tp549
sS'P1,126,1,A5,5'
p550
(F0.0
F-0.40601813685078225
F0.99
F-0.40601813685078225
tp551
sS'P1,107,1,G#5,3'
p552
(F0.0011111111111110628
F0.002100840336134498
F0.61
F0.002100840336134498
tp553
sS'P1,14,1,F#5,1'
p554
(F0.024490919097413855
F-0.3280132085855799
F0.59
F-0.3280132085855799
tp555
sS'P1,107,1,G#5,5'
p556
(F5.218048215738236e-15
F1.0436096431476471e-14
F0.61
F1.0436096431476471e-14
tp557
sS'P1,91,1,F#5,2'
p558
(F-1.9984014443252818e-15
F-2.9976021664879227e-15
F0.6
F-2.9976021664879227e-15
tp559
sS'P1,91,1,F#5,0'
p560
(F0.0
F-9.992007221626409e-16
F0.6
F-9.992007221626409e-16
tp561
sS'P1,75,1,E#5,1'
p562
(F-0.0011848341232216508
F2.220446049250313e-15
F0.57
F2.220446049250313e-15
tp563
sS'P1,105,1,F#5,4'
p564
(F0.0
F0.0010204081632629869
F0.61
F0.0010204081632629869
tp565
sS'P1,105,1,F#5,7'
p566
(F0.001020408163258324
F0.0022271714922048953
F0.61
F0.0022271714922048953
tp567
sS'P1,28,4,A3,3'
p568
(F0.0
F-0.40444444444444444
F0.49
F-0.40444444444444444
tp569
sS'P1,60,1,E5,3'
p570
(F0.010455947891665596
F-0.3496743229345254
F0.96
F-0.3496743229345254
tp571
sS'P1,28,4,A3,1'
p572
(F-0.0036880927291902954
F-0.04636459430980289
F0.56
F-0.04636459430980289
tp573
sS'P1,28,4,A3,5'
p574
(F0.0
F-0.4044444444444445
F0.49
F-0.4044444444444445
tp575
sS'P1,4,4,C4,1'
p576
(F-0.017401392111369207
F-0.16241299303944368
F0.49
F-0.16241299303944368
tp577
sS'P1,4,4,C4,3'
p578
(F0.0
F-0.3708133971291864
F0.52
F-0.3708133971291864
tp579
sS'P1,4,4,C4,5'
p580
(F0.03588516746411574
F-0.3349282296650705
F0.52
F-0.3349282296650705
tp581
sS'P1,21,4,A3,1'
p582
(F-0.038461538461537714
F-0.4160535117056847
F0.69
F-0.4160535117056847
tp583
sS'P1,117,1,C#6,1'
p584
(F0.058220432076161725
F0.0033085194375396445
F1.0
F0.0033085194375396445
tp585
sS'P1,62,1,C#5,0'
p586
(F0.028995279838171018
F-0.12306136210383561
F0.96
F-0.12306136210383561
tp587
sS'P1,85,1,A4,0'
p588
(F0.0
F-0.0005330490405097699
F0.93
F-0.0005330490405097699
tp589
sS'P1,35,4,E3,2'
p590
(F-0.06772151898733503
F-0.43126888217522985
F0.49
F-0.43126888217522985
tp591
sS'P1,65,4,A3,1'
p592
(F0.0011494252873562871
F-0.39770114942528734
F0.4
F-0.39770114942528734
tp593
sS'P1,65,4,A3,3'
p594
(F0.0
F-0.39978213507625243
F0.4
F-0.39978213507625243
tp595
sS'P1,104,1,A4,0'
p596
(F0.0
F-0.0011402508551808799
F0.63
F-0.0011402508551808799
tp597
sS'P1,30,4,E3,1'
p598
(F-0.0010940919037203956
F-0.2691466083150992
F0.49
F-0.2691466083150992
tp599
sS'P1,38,4,E3,0'
p600
(F0.0
F0.0
F0.49
F0.0
tp601
sS'P1,113,1,C#6,1'
p602
(F0.03393351800552954
F0.0023520188161505677
F1.0
F0.0023520188161505677
tp603
sS'P1,113,1,B5,5'
p604
(F0.015092120736974302
F-0.3884751078008525
F1.0
F-0.3884751078008525
tp605
sS'P1,7,4,E3,0'
p606
(F0.06951871657754007
F0.09999999999999964
F0.61
F0.09999999999999964
tp607
sS'P1,51,1,F#4,0'
p608
(F0.04139008199921309
F-0.3180398281921194
F0.96
F-0.3180398281921194
tp609
sS'P1,66,4,C#4,4'
p610
(F0.0
F-0.39301310043667953
F0.4
F-0.39301310043667953
tp611
sS'P1,66,4,C#4,6'
p612
(F7.993605777301127e-15
F-0.3930131004366716
F0.4
F-0.3930131004366716
tp613
sS'P1,66,4,C#4,2'
p614
(F0.0010799136069095105
F-0.39308855291576905
F0.4
F-0.39308855291576905
tp615
sS'P1,60,4,E3,3'
p616
(F0.008778483376913115
F-0.372431826671649
F0.7
F-0.372431826671649
tp617
sS'P1,60,4,E3,2'
p618
(F0.0
F-0.3812103100485621
F0.7
F-0.3812103100485621
tp619
sS'P1,12,4,A3,0'
p620
(F-0.018480492813139238
F0.006024096385541466
F0.49
F0.006024096385541466
tp621
sS'P1,11,1,A5,0'
p622
(F0.16795069337442017
F0.016949152542369617
F0.6
F0.016949152542369617
tp623
sS'P1,49,1,B4,4'
p624
(F0.026829268292679953
F-0.3682926829268328
F0.88
F-0.3682926829268328
tp625
sS'P1,27,1,A5,3'
p626
(F0.14461423779351734
F-0.1384644055162107
F0.92
F-0.1384644055162107
tp627
sS'P1,80,1,D5,2'
p628
(F-0.0016629711751657839
F-0.0033259423503315677
F0.93
F-0.0033259423503315677
tp629
sS'P1,27,1,A5,0'
p630
(F0.16760676873488828
F-0.08098307816277489
F0.82
F-0.08098307816277489
tp631
sS'P1,54,1,A5,5'
p632
(F0.0
F-0.4011124845488258
F0.96
F-0.4011124845488258
tp633
sS'P1,27,1,A5,5'
p634
(F-0.1312896011926924
F-0.06597092806559612
F0.92
F-0.06597092806559612
tp635
sS'P1,49,1,C#5,0'
p636
(F0.07067974298275807
F0.012195121951219443
F0.96
F0.012195121951219443
tp637
sS'P1,68,1,D6,5'
p638
(F0.0005694760820066369
F0.0011389521640132738
F0.69
F0.0011389521640132738
tp639
sS'P1,86,4,E4,5'
p640
(F0.0010940919037268904
F-0.2932166301969268
F0.57
F-0.2932166301969268
tp641
sS'P1,86,4,E4,2'
p642
(F0.0011494252873562871
F-0.2942528735632184
F0.57
F-0.2942528735632184
tp643
sS'P1,104,1,D6,2'
p644
(F-0.0008771929824561431
F-0.0017543859649122862
F0.61
F-0.0017543859649122862
tp645
sS'P1,124,1,A4,4'
p646
(F0.0
F-0.42511700468018765
F0.91
F-0.42511700468018765
tp647
sS'P1,33,1,G5,1'
p648
(F-0.006849315068494732
F-0.43700787401574825
F0.73
F-0.43700787401574825
tp649
sS'P1,33,1,G5,3'
p650
(F-0.041338582677166946
F-0.4724409448818916
F0.73
F-0.4724409448818916
tp651
sS'P1,33,1,G5,4'
p652
(F0.1754807692307706
F-0.050480769230765776
F0.84
F-0.050480769230765776
tp653
sS'P1,73,4,C#4,2'
p654
(F-2.942091015256665e-15
F-0.32467532467532867
F0.49
F-0.32467532467532867
tp655
sS'P1,96,1,F#5,0'
p656
(F0.0
F0.0
F0.64
F0.0
tp657
sS'P1,95,1,C#6,2'
p658
(F-0.004228329809731812
F-0.004756871035950794
F0.74
F-0.004756871035950794
tp659
sS'P1,73,4,C#4,6'
p660
(F-2.942091015256665e-15
F-0.32467532467532867
F0.49
F-0.32467532467532867
tp661
sS'P1,73,4,C#4,4'
p662
(F0.0
F-0.3246753246753257
F0.49
F-0.3246753246753257
tp663
sS'P1,122,1,G#5,7'
p664
(F0.02120717781402781
F-0.39314845024470013
F0.99
F-0.39314845024470013
tp665
sS'P1,123,1,G#5,3'
p666
(F0.038522012578609544
F-0.38128930817610673
F0.99
F-0.38128930817610673
tp667
sS'P1,32,4,A2,0'
p668
(F0.0
F0.0
F0.49
F0.0
tp669
sS'P1,27,1,A5,2'
p670
(F-0.07957292506043812
F-0.07816277195810128
F0.82
F-0.07816277195810128
tp671
sS'P1,49,1,A4,2'
p672
(F0.004878048780487778
F-0.390243902439025
F0.88
F-0.390243902439025
tp673
sS'P1,72,4,E4,1'
p674
(F0.0
F-0.0019417475728331635
F0.48
F-0.0019417475728331635
tp675
sS'P1,81,1,F#5,5'
p676
(F-0.0008493771234433511
F-0.0016987542468867023
F0.89
F-0.0016987542468867023
tp677
sS'P1,21,4,C3,2'
p678
(F-0.07692307692307543
F-0.44637223974763107
F0.69
F-0.44637223974763107
tp679
sS'P1,76,4,G#3,1'
p680
(F-0.012931034482759562
F-0.33189655172413923
F0.49
F-0.33189655172413923
tp681
sS'P1,76,4,G#3,3'
p682
(F0.0
F-0.32389937106918343
F0.49
F-0.32389937106918343
tp683
sS'P1,122,1,A5,5'
p684
(F0.0
F-0.41435562805872783
F0.99
F-0.41435562805872783
tp685
sS'P1,106,4,C#4,2'
p686
(F-0.0011135857461034848
F-0.37861915367483423
F0.49
F-0.37861915367483423
tp687
sS'P1,93,4,B3,2'
p688
(F5.995204332975845e-15
F-0.37938596491227317
F0.49
F-0.37938596491227317
tp689
sS'P1,93,4,B3,4'
p690
(F0.0
F-0.37912087912088155
F0.49
F-0.37912087912088155
tp691
sS'P1,106,4,C#4,4'
p692
(F0.0
F-0.37750556792873075
F0.49
F-0.37750556792873075
tp693
sS'P1,83,1,C#5,2'
p694
(F-9.992007221626409e-16
F0.001152073732717418
F0.88
F0.001152073732717418
tp695
sS'P1,114,1,G#5,7'
p696
(F0.020980473618610773
F-0.3793103448275881
F1.0
F-0.3793103448275881
tp697
sS'P1,15,1,F#5,6'
p698
(F-0.05098039215686273
F-0.3803921568627451
F0.73
F-0.3803921568627451
tp699
sS'P1,15,1,F#5,1'
p700
(F0.00028918449971182536
F-0.3447079236552907
F0.56
F-0.3447079236552907
tp701
sS'P1,108,4,F#3,5'
p702
(F0.0
F-0.36444444444444446
F0.56
F-0.36444444444444446
tp703
sS'P1,63,1,B4,2'
p704
(F0.028604118993137195
F-0.36842105263157643
F0.96
F-0.36842105263157643
tp705
sS'P1,78,4,G#3,0'
p706
(F0.0
F-0.34110169491525666
F0.61
F-0.34110169491525666
tp707
sS'P1,33,4,E3,2'
p708
(F-0.0629921259842553
F-0.41826923076923017
F0.73
F-0.41826923076923017
tp709
sS'P1,125,4,A3,0'
p710
(F0.04316020482810141
F0.021580102414056612
F0.91
F0.021580102414056612
tp711
sS'P1,125,4,A3,1'
p712
(F0.021580102414056612
F-0.3511338697878451
F0.68
F-0.3511338697878451
tp713
sS'P1,125,4,A3,2'
p714
(F0.0
F-0.35916632942129023
F0.68
F-0.35916632942129023
tp715
sS'P1,125,4,A3,3'
p716
(F0.0269121813031038
F-0.33225414811818643
F0.68
F-0.33225414811818643
tp717
sS'P1,26,4,C4,1'
p718
(F-0.027862208713273884
F-0.39614994934144043
F0.49
F-0.39614994934144043
tp719
sS'P1,26,4,C4,3'
p720
(F-0.05572441742654777
F-0.42491595069107174
F0.49
F-0.42491595069107174
tp721
sS'P1,26,4,C4,5'
p722
(F-0.06854688083675542
F-0.43182667164736366
F0.49
F-0.43182667164736366
tp723
sS'P1,33,1,E5,2'
p724
(F-0.041338582677166946
F-0.4724409448818916
F0.73
F-0.4724409448818916
tp725
sS'P1,33,1,E5,0'
p726
(F-0.006849315068494732
F-0.43700787401574825
F0.73
F-0.43700787401574825
tp727
sS'P1,33,1,E5,6'
p728
(F-0.024038461538455902
F0.0
F0.8
F0.0
tp729
sS'P1,37,4,A2,0'
p730
(F0.0
F-0.3458498023715426
F0.61
F-0.3458498023715426
tp731
sS'P1,75,4,A3,1'
p732
(F2.220446049250313e-15
F-0.32464454976303025
F0.49
F-0.32464454976303025
tp733
sS'P1,115,1,G#5,3'
p734
(F0.03961538461537717
F-0.36346153846154516
F1.0
F-0.36346153846154516
tp735
sS'P1,75,4,A3,3'
p736
(F0.0
F-0.31192660550458673
F0.49
F-0.31192660550458673
tp737
sS'P1,75,4,A3,5'
p738
(F0.03440366972477171
F-0.3027522935779803
F0.49
F-0.3027522935779803
tp739
sS'P1,82,1,C#5,6'
p740
(F0.0011235955056128066
F0.0005617977528012963
F0.89
F0.0005617977528012963
tp741
sS'P1,7,1,D#5,5'
p742
(F-0.05220883534136528
F-0.44779116465863433
F0.74
F-0.44779116465863433
tp743
sS'P1,45,4,F3,4'
p744
(F0.0010660980810273113
F-0.31769722814498413
F0.43
F-0.31769722814498413
tp745
sS'P1,29,1,C6,0'
p746
(F0.0
F-0.36830357142857095
F1.0
F-0.36830357142857095
tp747
sS'P1,76,1,B#5,3'
p748
(F-0.006465517241380669
F0.0
F0.66
F0.0
tp749
sS'P1,57,1,C#6,1'
p750
(F0.06776180698151944
F-0.03696098562628425
F1.02
F-0.03696098562628425
tp751
sS'P1,76,1,B#5,1'
p752
(F-0.006465517241379781
F-0.012931034482759562
F0.66
F-0.012931034482759562
tp753
sS'P1,15,4,E4,2'
p754
(F0.00028918449971182536
F-0.3886639676113347
F0.41
F-0.3886639676113347
tp755
sS'P1,111,1,B5,1'
p756
(F-0.0005241090146765048
F-0.0010482180293530097
F0.61
F-0.0010482180293530097
tp757
sS'P1,77,4,F#3,0'
p758
(F0.0
F-0.3423423423423443
F0.61
F-0.3423423423423443
tp759
sS'P1,66,1,G#5,2'
p760
(F0.0010799136069095105
F0.0016198704103641548
F0.69
F0.0016198704103641548
tp761
sS'P1,102,1,G#5,1'
p762
(F-0.0005668934240408985
F-0.001133786848081797
F0.91
F-0.001133786848081797
tp763
sS'P1,126,1,A4,4'
p764
(F0.0
F-0.40601813685078225
F0.93
F-0.40601813685078225
tp765
sS'P1,34,2,B4,0'
p766
(F0.0
F1.9984014443252818e-15
F0.63
F1.9984014443252818e-15
tp767
sS'P1,92,1,B#5,1'
p768
(F0.0016411378555833966
F0.0010940919037268904
F0.6
F0.0010940919037268904
tp769
sS'P1,92,1,B#5,3'
p770
(F0.0005470459518703841
F0.0
F0.7
F0.0
tp771
sS'P1,92,1,B#5,5'
p772
(F0.0016411378555758471
F0.0010940919037119023
F0.74
F0.0010940919037119023
tp773
sS'P1,44,1,C6,0'
p774
(F0.00625
F0.01851851851851873
F0.94
F0.01851851851851873
tp775
sS'P1,22,2,E4,1'
p776
(F0.0
F0.0
F0.63
F0.0
tp777
sS'P1,77,1,G#5,6'
p778
(F-0.0011286681715493851
F-0.0005643340857665047
F0.66
F-0.0005643340857665047
tp779
sS'P1,77,1,G#5,3'
p780
(F-9.103828801926284e-15
F0.0
F0.66
F0.0
tp781
sS'P1,7,1,A5,2'
p782
(F0.035828877005347315
F-0.37647058823529456
F0.88
F-0.37647058823529456
tp783
sS'P1,88,4,A3,1'
p784
(F-0.1315789473684198
F-0.21428571428571164
F0.62
F-0.21428571428571164
tp785
sS'P1,61,4,A3,0'
p786
(F0.031842576028627646
F-0.021645796064397038
F0.88
F-0.021645796064397038
tp787
sS'P1,61,4,A3,1'
p788
(F0.008407871198572447
F-0.3799642218246837
F0.71
F-0.3799642218246837
tp789
sS'P1,61,4,A3,2'
p790
(F0.0
F-0.3839009287925701
F0.71
F-0.3839009287925701
tp791
sS'P1,61,4,A3,3'
p792
(F0.017801857585137304
F-0.3660990712074329
F0.71
F-0.3660990712074329
tp793
sS'P1,84,4,G#3,3'
p794
(F0.0
F-0.3345679012345679
F0.61
F-0.3345679012345679
tp795
sS'P1,84,4,G#3,1'
p796
(F0.001052631578956964
F-0.3326315789473556
F0.61
F-0.3326315789473556
tp797
sS'P1,84,4,G#3,5'
p798
(F0.0012345679012345512
F-0.33333333333333337
F0.61
F-0.33333333333333337
tp799
sS'P1,26,4,E4,2'
p800
(F-0.027862208713273884
F-0.39614994934144043
F0.49
F-0.39614994934144043
tp801
sS'P1,99,4,C#4,3'
p802
(F0.0
F-0.3484848484848449
F0.49
F-0.3484848484848449
tp803
sS'P1,99,4,C#4,1'
p804
(F0.0011337868480633118
F-0.3469387755102161
F0.49
F-0.3469387755102161
tp805
sS'P1,26,4,E4,6'
p806
(F-0.06854688083675542
F-0.43182667164736366
F0.49
F-0.43182667164736366
tp807
sS'P1,26,4,E4,4'
p808
(F-0.05572441742654777
F-0.42491595069107174
F0.49
F-0.42491595069107174
tp809
sS'P1,99,4,C#4,5'
p810
(F1.176836406102666e-14
F-0.3484848484848331
F0.49
F-0.3484848484848331
tp811
sS'P1,97,1,A4,0'
p812
(F0.0
F-0.0005422993492353867
F0.83
F-0.0005422993492353867
tp813
sS'P1,56,1,A4,2'
p814
(F0.0
F-0.43356643356643415
F0.96
F-0.43356643356643415
tp815
sS'P1,30,1,E5,1'
p816
(F-0.0010940919037203956
F-0.3894967177242894
F0.68
F-0.3894967177242894
tp817
sS'P1,120,1,B5,5'
p818
(F0.03688029020556349
F-0.3857315598548958
F0.99
F-0.3857315598548958
tp819
sS'P1,28,4,F3,0'
p820
(F0.007376185458377215
F0.12065331928345424
F0.56
F0.12065331928345424
tp821
sS'P1,93,1,C#6,3'
p822
(F8.992806499463768e-15
F0.0
F0.74
F0.0
tp823
sS'P1,7,1,B5,0'
p824
(F0.06951871657754007
F-0.3727272727272728
F0.95
F-0.3727272727272728
tp825
sS'P1,93,1,C#6,1'
p826
(F2.9976021664879227e-15
F5.995204332975845e-15
F0.74
F5.995204332975845e-15
tp827
sS'P1,93,1,C#6,7'
p828
(F-0.0005494505494655355
F0.0
F0.74
F0.0
tp829
sS'P1,93,1,C#6,5'
p830
(F0.0005494505494455515
F0.001098901098891103
F0.74
F0.001098901098891103
tp831
sS'P1,6,1,E5,3'
p832
(F0.0
F-0.4198055893074119
F0.81
F-0.4198055893074119
tp833
sS'P1,32,1,F5,4'
p834
(F-0.002283105022831855
F-0.4292237442922384
F0.73
F-0.4292237442922384
tp835
sS'P1,111,1,A5,0'
p836
(F0.0
F-0.0005241090146765048
F0.61
F-0.0005241090146765048
tp837
sS'P1,63,1,E4,6'
p838
(F-0.031760435571685175
F-0.4228675136116119
F0.91
F-0.4228675136116119
tp839
sS'P1,52,1,B4,6'
p840
(F-0.002837684449491229
F-0.39841089670828855
F0.92
F-0.39841089670828855
tp841
sS'P1,82,4,D4,1'
p842
(F-0.001694915254237317
F-0.3096045197740114
F0.56
F-0.3096045197740114
tp843
sS'P1,98,4,G#3,3'
p844
(F0.0
F-0.23942093541202725
F0.76
F-0.23942093541202725
tp845
sS'P1,31,4,G#3,7'
p846
(F-0.2011494252873539
F-0.5057471264367777
F0.54
F-0.5057471264367777
tp847
sS'P1,31,4,G#3,5'
p848
(F-0.2225755166931649
F-0.6144674085850569
F0.57
F-0.6144674085850569
tp849
sS'P1,82,4,D4,4'
p850
(F0.0011235955056128066
F-0.307865168539333
F0.56
F-0.307865168539333
tp851
sS'P1,58,1,A5,5'
p852
(F-0.0013937282229953274
F-0.3830645161290268
F0.96
F-0.3830645161290268
tp853
sS'P1,93,4,F#3,5'
p854
(F-0.001098901098911087
F-0.3802197802197925
F0.49
F-0.3802197802197925
tp855
sS'P1,126,1,C#5,0'
p856
(F0.0483478260869668
F-0.030086956521727493
F0.93
F-0.030086956521727493
tp857
sS'P1,93,4,F#3,3'
p858
(F0.0
F-0.37912087912088155
F0.49
F-0.37912087912088155
tp859
sS'P1,93,4,F#3,1'
p860
(F5.995204332975845e-15
F-0.37938596491227317
F0.49
F-0.37938596491227317
tp861
sS'P1,59,4,D#3,2'
p862
(F0.05659640905541972
F-0.003122560499615845
F0.88
F-0.003122560499615845
tp863
sS'P1,59,4,D#3,3'
p864
(F0.039032006245114825
F-0.30171740827479177
F0.7
F-0.30171740827479177
tp865
sS'P1,74,4,B3,5'
p866
(F-2.942091015256665e-15
F-0.32467532467532867
F0.49
F-0.32467532467532867
tp867
sS'P1,76,1,B5,7'
p868
(F0.0005241090146707039
F0.0
F0.66
F0.0
tp869
sS'P1,74,4,B3,3'
p870
(F0.0
F-0.3246753246753257
F0.49
F-0.3246753246753257
tp871
sS'P1,74,4,B3,1'
p872
(F1.176836406102666e-14
F-0.3246753246753087
F0.49
F-0.3246753246753087
tp873
sS'P1,100,4,G#3,3'
p874
(F0.0
F-0.3538812785388119
F0.49
F-0.3538812785388119
tp875
sS'P1,100,4,G#3,1'
p876
(F-1.0269562977782698e-14
F-0.35330578512398036
F0.49
F-0.35330578512398036
tp877
sS'P1,70,4,E4,2'
p878
(F0.0011235955056128066
F-0.3438202247191079
F0.49
F-0.3438202247191079
tp879
sS'P1,70,4,E4,4'
p880
(F0.0
F-0.3449438202247159
F0.49
F-0.3449438202247159
tp881
sS'P1,100,4,G#3,5'
p882
(F3.1086244689504383e-15
F-0.3538812785388089
F0.49
F-0.3538812785388089
tp883
sS'P1,70,4,E4,6'
p884
(F0.0011235955056282387
F-0.3438202247190877
F0.49
F-0.3438202247190877
tp885
sS'P1,23,4,A3,1'
p886
(F-0.03969312875250197
F-0.4476317545030023
F0.49
F-0.4476317545030023
tp887
sS'P1,62,1,C#6,1'
p888
(F0.028995279838171018
F-0.12306136210383561
F0.96
F-0.12306136210383561
tp889
sS'P1,3,1,A5,0'
p890
(F0.16666666666666666
F-0.080952380952381
F0.71
F-0.080952380952381
tp891
sS'P1,3,1,A5,2'
p892
(F-0.080952380952381
F-0.07857142857142863
F0.71
F-0.07857142857142863
tp893
sS'P1,3,1,A5,3'
p894
(F0.14666666666666667
F-0.09333333333333332
F0.78
F-0.09333333333333332
tp895
sS'P1,85,1,A5,7'
p896
(F-1.7430501486614958e-14
F-0.051282051282073415
F0.93
F-0.051282051282073415
tp897
sS'P1,3,1,A5,5'
p898
(F-0.16333333333333333
F0.0
F0.9
F0.0
tp899
sS'P1,4,1,C6,0'
p900
(F0.0
F0.028708133971291915
F1.06
F0.028708133971291915
tp901
sS'P1,10,1,E5,1'
p902
(F0.18470443781792673
F0.025697246097176052
F0.6
F0.025697246097176052
tp903
sS'P1,4,1,C6,2'
p904
(F0.03588516746411574
F-0.29665071770334794
F0.97
F-0.29665071770334794
tp905
sS'P1,10,1,E5,3'
p906
(F-0.07275039466760203
F0.01309707241910487
F0.6
F0.01309707241910487
tp907
sS'P1,29,4,A3,1'
p908
(F1.7763568394002505e-15
F-0.26785714285714024
F0.49
F-0.26785714285714024
tp909
sS'P1,102,1,F#5,2'
p910
(F0.0011337868480633118
F0.0005668934240223855
F0.91
F0.0005668934240223855
tp911
sS'P1,52,1,A4,4'
p912
(F0.0
F-0.40919409761634545
F0.92
F-0.40919409761634545
tp913
sS'P1,99,1,B4,1'
p914
(F-0.0005668934240408985
F-0.001133786848081797
F0.85
F-0.001133786848081797
tp915
sS'P1,1,1,C5,0'
p916
(F0.0
F-0.9204728640515851
F0.62
F-0.9204728640515851
tp917
sS'P1,1,1,C5,1'
p918
(F0.19830200121285624
F-0.03729533050333539
F0.63
F-0.03729533050333539
tp919
sS'P1,1,1,C5,3'
p920
(F-0.020466949666464562
F-0.006064281382656245
F0.63
F-0.006064281382656245
tp921
sS'P1,86,1,E5,3'
p922
(F-0.0005747126436781436
F0.0
F0.93
F0.0
tp923
sS'P1,86,1,E5,4'
p924
(F0.0
F-0.0005470459518564785
F0.93
F-0.0005470459518564785
tp925
sS'P1,87,4,E3,3'
p926
(F-0.0011235955056230762
F-0.3393258426966361
F0.66
F-0.3393258426966361
tp927
sS'P1,33,4,C3,0'
p928
(F0.011811023622047204
F-0.3543307086614178
F0.73
F-0.3543307086614178
tp929
sS'P1,123,1,F#4,0'
p930
(F0.040880503144643004
F-0.3789308176100733
F0.91
F-0.3789308176100733
tp931
sS'P1,121,4,A3,0'
p932
(F0.06915477497255734
F0.03457738748627659
F0.89
F0.03457738748627659
tp933
sS'P1,121,4,A3,1'
p934
(F0.03457738748627659
F-0.33369923161361414
F0.66
F-0.33369923161361414
tp935
sS'P1,121,4,A3,2'
p936
(F0.0
F-0.3505603985056077
F0.66
F-0.3505603985056077
tp937
sS'P1,121,4,A3,3'
p938
(F0.028019925280186042
F-0.3225404732254217
F0.66
F-0.3225404732254217
tp939
sS'P1,114,1,G#4,6'
p940
(F0.020980473618610773
F-0.3793103448275881
F1.0
F-0.3793103448275881
tp941
sS'P1,60,1,B4,6'
p942
(F0.008778483376913115
F-0.412775494957043
F0.96
F-0.412775494957043
tp943
sS'P1,59,1,G#4,2'
p944
(F0.028828497980170287
F-0.32574366507528285
F0.96
F-0.32574366507528285
tp945
sS'P1,12,4,C4,5'
p946
(F0.032267275842376764
F-0.33295259851513304
F0.49
F-0.33295259851513304
tp947
sS'P1,12,4,C4,3'
p948
(F0.0
F-0.36521987435750974
F0.49
F-0.36521987435750974
tp949
sS'P1,12,4,C4,1'
p950
(F0.006024096385541466
F-0.36947791164658716
F0.49
F-0.36947791164658716
tp951
sS'P1,86,1,D5,5'
p952
(F0.0016411378555833966
F0.0010940919037268904
F0.93
F0.0010940919037268904
tp953
sS'P1,32,4,A3,1'
p954
(F0.0
F-0.02995391705069328
F0.49
F-0.02995391705069328
tp955
sS'P1,110,1,A5,3'
p956
(F0.0005518763796729109
F0.0
F0.61
F0.0
tp957
sS'P1,110,1,A5,5'
p958
(F-0.0005518763796894532
F-0.0011037527593789065
F0.61
F-0.0011037527593789065
tp959
sS'P1,127,4,D3,0'
p960
(F0.03967065868264565
F0.004491017964083133
F0.93
F0.004491017964083133
tp961
sS'P1,100,1,C#5,4'
p962
(F3.1086244689504383e-15
F-0.0011415525114109037
F0.91
F-0.0011415525114109037
tp963
sS'P1,103,1,B4,4'
p964
(F0.0
F0.0005050505050505083
F0.77
F0.0005050505050505083
tp965
sS'P1,103,1,B4,7'
p966
(F0.0015151515151515804
F0.0011402508551881497
F0.66
F0.0011402508551881497
tp967
sS'P1,36,1,B4,4'
p968
(F0.0326086956521765
F-0.3869565217391274
F0.71
F-0.3869565217391274
tp969
sS'P1,46,4,B3,5'
p970
(F-3.552713678800501e-15
F-0.3171806167400929
F0.43
F-0.3171806167400929
tp971
sS'P1,71,1,D#5,3'
p972
(F-0.0005694760819983102
F0.0
F0.62
F0.0
tp973
sS'P1,122,1,A4,4'
p974
(F0.0
F-0.41435562805872783
F0.91
F-0.41435562805872783
tp975
sS'P1,71,1,D#5,0'
p976
(F0.0
F0.0005694760820066369
F0.64
F0.0005694760820066369
tp977
sS'P1,71,1,D#5,6'
p978
(F-0.06586270871985234
F-0.037569573283860236
F0.62
F-0.037569573283860236
tp979
sS'P1,111,1,G#5,6'
p980
(F-0.0009107468123787377
F-0.0013661202185679677
F0.61
F-0.0013661202185679677
tp981
sS'P1,6,1,F#5,1'
p982
(F0.032877432930036754
F-0.3976854287217255
F0.81
F-0.3976854287217255
tp983
sS'P1,6,1,F#5,5'
p984
(F0.03948967193195618
F-0.38031591737545567
F0.86
F-0.38031591737545567
tp985
sS'P1,84,1,E5,2'
p986
(F0.0
F-0.0006172839506172756
F0.93
F-0.0006172839506172756
tp987
sS'P1,127,4,E3,2'
p988
(F0.03832335329340426
F-0.07544910179641823
F0.91
F-0.07544910179641823
tp989
sS'P1,127,4,E3,3'
p990
(F-0.03952095808384354
F-0.35808383233534147
F0.68
F-0.35808383233534147
tp991
sS'P1,26,1,E5,0'
p992
(F0.0
F-0.3824721377912871
F0.56
F-0.3824721377912871
tp993
sS'P1,26,1,E5,1'
p994
(F0.1849084796413905
F-0.06854688083675542
F0.62
F-0.06854688083675542
tp995
sS'P1,26,1,E5,3'
p996
(F-0.07424355621964562
F-0.0776989166977915
F0.62
F-0.0776989166977915
tp997
sS'P1,13,1,E5,3'
p998
(F0.005257009345794377
F-0.33119158878504723
F0.64
F-0.33119158878504723
tp999
sS'P1,98,1,G#5,1'
p1000
(F-0.0011415525114140124
F3.1086244689504383e-15
F0.91
F3.1086244689504383e-15
tp1001
sS'P1,32,1,D5,3'
p1002
(F-0.002283105022831855
F-0.4292237442922384
F0.73
F-0.4292237442922384
tp1003
sS'P1,3,4,C4,4'
p1004
(F-0.05111111111111111
F-0.2844444444444445
F0.49
F-0.2844444444444445
tp1005
sS'P1,76,4,G#3,5'
p1006
(F0.001048218029347292
F-0.32285115303983614
F0.49
F-0.32285115303983614
tp1007
sS'P1,64,1,B5,5'
p1008
(F0.0004911591355585276
F0.0
F0.69
F0.0
tp1009
sS'P1,35,4,E4,3'
p1010
(F-0.048338368580066515
F-0.45317220543807335
F0.53
F-0.45317220543807335
tp1011
sS'P1,42,1,D#5,2'
p1012
(F-0.07573998839233942
F-0.04251305861868915
F0.65
F-0.04251305861868915
tp1013
sS'P1,126,1,B4,2'
p1014
(F0.024173913043490036
F-0.39026086956520534
F0.93
F-0.39026086956520534
tp1015
sS'P1,62,1,G#5,7'
p1016
(F0.015662650602404016
F-0.3879518072289223
F0.96
F-0.3879518072289223
tp1017
sS'P1,60,4,E3,1'
p1018
(F0.010455947891665596
F-0.3743572163181388
F0.7
F-0.3743572163181388
tp1019
sS'P1,32,1,E5,2'
p1020
(F0.0
F-0.4269406392694065
F0.73
F-0.4269406392694065
tp1021
sS'P1,106,1,E#5,3'
p1022
(F0.0005567928730497718
F0.0
F0.61
F0.0
tp1023
sS'P1,50,1,C#6,1'
p1024
(F0.03862660944206016
F-0.16309012875536416
F0.99
F-0.16309012875536416
tp1025
sS'P1,96,1,E5,1'
p1026
(F0.0
F0.0006203473945398108
F0.91
F0.0006203473945398108
tp1027
sS'P1,81,4,E4,2'
p1028
(F-0.0022831050228280247
F-0.3105022831050186
F0.56
F-0.3105022831050186
tp1029
sS'P1,81,4,E4,4'
p1030
(F0.0
F-0.3097395243488113
F0.56
F-0.3097395243488113
tp1031
sS'P1,81,4,E4,6'
p1032
(F-0.0016987542468867023
F-0.31143827859569795
F0.56
F-0.31143827859569795
tp1033
sS'P1,119,1,E4,6'
p1034
(F0.023809523809520616
F-0.4025974025974062
F0.91
F-0.4025974025974062
tp1035
sS'P1,97,1,F#5,5'
p1036
(F-0.0005285412262190092
F-0.0010570824524380185
F0.91
F-0.0010570824524380185
tp1037
sS'P1,16,1,E5,2'
p1038
(F0.0
F-0.418238993710692
F0.71
F-0.418238993710692
tp1039
sS'P1,16,1,E5,0'
p1040
(F0.0
F0.0
F0.63
F0.0
tp1041
sS'P1,106,4,C#4,6'
p1042
(F-0.0011135857461034848
F-0.37861915367483423
F0.49
F-0.37861915367483423
tp1043
sS'P1,69,1,F#5,7'
p1044
(F0.0005518763796955595
F0.0
F0.69
F0.0
tp1045
sS'P1,69,1,F#5,4'
p1046
(F0.0
F-0.0005518763796894532
F0.69
F-0.0005518763796894532
tp1047
sS'P1,93,4,B3,6'
p1048
(F-0.001098901098911087
F-0.3802197802197925
F0.49
F-0.3802197802197925
tp1049
sS'P1,59,1,F#4,0'
p1050
(F0.02423797282409114
F-0.330334190231362
F0.96
F-0.330334190231362
tp1051
sS'P1,98,4,B3,0'
p1052
(F0.0
F-0.23972602739725868
F0.76
F-0.23972602739725868
tp1053
sS'P1,77,4,C#4,6'
p1054
(F-0.0011286681715493851
F-0.3295711060947971
F0.49
F-0.3295711060947971
tp1055
sS'P1,77,4,C#4,4'
p1056
(F0.0
F-0.3284424379232478
F0.49
F-0.3284424379232478
tp1057
sS'P1,77,4,C#4,2'
p1058
(F-6.050715484207103e-15
F-0.32432432432433256
F0.49
F-0.32432432432433256
tp1059
sS'P1,59,1,A4,4'
p1060
(F0.035519125683054396
F-0.32162373145980294
F0.96
F-0.32162373145980294
tp1061
sS'P1,58,1,A4,4'
p1062
(F0.0032258064516187588
F-0.37822580645160747
F0.96
F-0.37822580645160747
tp1063
sS'P1,122,1,G#4,6'
p1064
(F0.02120717781402781
F-0.39314845024470013
F0.91
F-0.39314845024470013
tp1065
sS'P1,4,4,E4,2'
p1066
(F-0.017401392111369207
F-0.16241299303944368
F0.49
F-0.16241299303944368
tp1067
sS'P1,64,1,A5,1'
p1068
(F0.0
F0.001964636542239682
F0.84
F0.001964636542239682
tp1069
sS'P1,2,4,A3,0'
p1070
(F0.004739336492890996
F0.20426540284360184
F0.57
F0.20426540284360184
tp1071
sS'P1,111,1,F#5,3'
p1072
(F-0.0015723270440294312
F-0.0020964360587060193
F0.61
F-0.0020964360587060193
tp1073
sS'P1,94,1,C#6,1'
p1074
(F-0.0005668934240331824
F-0.0011337868480663649
F0.74
F-0.0011337868480663649
tp1075
sS'P1,97,1,A5,7'
p1076
(F0.0005285412262056033
F-0.05285412262157718
F0.93
F-0.05285412262157718
tp1077
sS'P1,55,4,D3,0'
p1078
(F0.04438224710115899
F-0.006997201119558261
F0.91
F-0.006997201119558261
tp1079
sS'P1,55,4,D3,1'
p1080
(F0.052978808476602524
F-0.31027588964415087
F0.73
F-0.31027588964415087
tp1081
sS'P1,107,1,F#5,2'
p1082
(F0.0
F0.0011111111111110628
F0.61
F0.0011111111111110628
tp1083
sS'P1,124,1,B5,7'
p1084
(F0.02184087363494236
F-0.4032761310452453
F0.99
F-0.4032761310452453
tp1085
sS'P1,47,4,E3,6'
p1086
S'miss'
p1087
sS'P1,19,1,E5,6'
p1088
(F-0.021680736761321873
F-0.05525709900230402
F0.6
F-0.05525709900230402
tp1089
sS'P1,19,1,E5,2'
p1090
(F-0.03771131339402012
F-0.4713914174252297
F0.62
F-0.4713914174252297
tp1091
sS'P1,19,1,E5,0'
p1092
(F0.0
F-0.4336801040312096
F0.62
F-0.4336801040312096
tp1093
sS'P1,9,1,B4,2'
p1094
(F-0.033164876816171696
F0.05037902716361364
F0.59
F0.05037902716361364
tp1095
sS'P1,37,1,E5,4'
p1096
(F0.18137254901960906
F-0.04656862745097734
F0.71
F-0.04656862745097734
tp1097
sS'P1,21,4,C4,3'
p1098
(F-0.046529968454254444
F-0.40220820189273987
F0.69
F-0.40220820189273987
tp1099
sS'P1,105,1,A5,0'
p1100
(F0.0
F0.0010204081632629869
F0.61
F0.0010204081632629869
tp1101
sS'P1,59,1,B4,6'
p1102
(F0.029664324746285775
F-0.32747853239657143
F0.96
F-0.32747853239657143
tp1103
sS'P1,50,1,G#4,6'
p1104
(F0.026530612244898943
F-0.35346938775510073
F0.9
F-0.35346938775510073
tp1105
sS'P1,67,4,A3,3'
p1106
(F0.0
F-0.3088578088578113
F0.4
F-0.3088578088578113
tp1107
sS'P1,67,4,A3,1'
p1108
(F-9.992007221626409e-16
F-0.30875576036866503
F0.4
F-0.30875576036866503
tp1109
sS'P1,67,4,A3,5'
p1110
(F0.0011655011654947423
F-0.3076923076923165
F0.4
F-0.3076923076923165
tp1111
sS'P1,84,4,D4,4'
p1112
(F0.0
F-0.3345679012345679
F0.61
F-0.3345679012345679
tp1113
sS'P1,84,4,D4,6'
p1114
(F0.0012345679012345512
F-0.33333333333333337
F0.61
F-0.33333333333333337
tp1115
sS'P1,113,1,C#5,0'
p1116
(F0.03393351800552954
F0.0023520188161505677
F1.0
F0.0023520188161505677
tp1117
sS'P1,65,1,F#5,7'
p1118
(F0.0016339869281069008
F0.0021598272138228856
F0.69
F0.0021598272138228856
tp1119
sS'P1,18,1,C5,1'
p1120
(F0.0
F-0.4284064665127018
F0.62
F-0.4284064665127018
tp1121
sS'P1,84,4,D4,2'
p1122
(F0.001052631578956964
F-0.3326315789473556
F0.61
F-0.3326315789473556
tp1123
sS'P1,123,1,A4,4'
p1124
(F0.03658051689859691
F-0.3823061630218799
F0.91
F-0.3823061630218799
tp1125
sS'P1,79,4,G#3,0'
p1126
(F0.0
F-0.3447058823529445
F0.61
F-0.3447058823529445
tp1127
sS'P1,58,1,B4,2'
p1128
(F0.030313588850172435
F-0.36097560975609855
F0.96
F-0.36097560975609855
tp1129
sS'P1,12,1,A5,1'
p1130
(F0.0
F-0.38577955454026247
F0.81
F-0.38577955454026247
tp1131
sS'P1,116,4,E3,2'
p1132
(F0.0
F-0.36889153754469406
F0.7
F-0.36889153754469406
tp1133
sS'P1,116,4,E3,3'
p1134
(F0.022050059594763582
F-0.3468414779499305
F0.7
F-0.3468414779499305
tp1135
sS'P1,116,4,E3,0'
p1136
(F0.05005324813631494
F0.014376996805108844
F0.89
F0.014376996805108844
tp1137
sS'P1,116,4,E3,1'
p1138
(F0.014376996805108844
F-0.36421725239616976
F0.7
F-0.36421725239616976
tp1139
sS'P1,83,1,D5,3'
p1140
(F-0.0011520737327204156
F0.0
F0.88
F0.0
tp1141
sS'P1,35,1,E5,6'
p1142
(F-0.024169184290038337
F-0.033987915407864944
F0.55
F-0.033987915407864944
tp1143
sS'P1,18,2,B4,0'
p1144
(F0.0
F0.05650319829424333
F0.67
F0.05650319829424333
tp1145
sS'P1,108,4,C#4,4'
p1146
(F0.0
F-0.36444444444444446
F0.56
F-0.36444444444444446
tp1147
sS'P1,108,4,C#4,6'
p1148
(F0.0
F-0.36444444444444446
F0.56
F-0.36444444444444446
tp1149
sS'P1,103,1,A4,2'
p1150
(F0.0010101010101010166
F0.0015151515151515804
F0.85
F0.0015151515151515804
tp1151
sS'P1,90,4,C#4,2'
p1152
(F0.0010799136069095105
F-0.33909287257019705
F0.49
F-0.33909287257019705
tp1153
sS'P1,81,1,B4,1'
p1154
(F-0.0034246575342450625
F-0.0022831050228280247
F0.89
F-0.0022831050228280247
tp1155
sS'P1,90,4,C#4,6'
p1156
(F-0.0010799136069133963
F-0.34125269978401995
F0.49
F-0.34125269978401995
tp1157
sS'P1,90,4,C#4,4'
p1158
(F0.0
F-0.34017278617710645
F0.49
F-0.34017278617710645
tp1159
sS'P1,97,1,C#5,2'
p1160
(F-0.0010845986984707734
F-0.0016268980477061046
F0.91
F-0.0016268980477061046
tp1161
sS'P1,30,1,D5,3'
p1162
(F0.0010940919037194519
F-0.3873085339168496
F0.6
F-0.3873085339168496
tp1163
sS'P1,110,4,G#3,5'
p1164
(F-0.0011037527593789065
F-0.40838852097129885
F0.54
F-0.40838852097129885
tp1165
sS'P1,110,4,G#3,1'
p1166
(F0.0011037527593699137
F-0.40618101545255303
F0.54
F-0.40618101545255303
tp1167
sS'P1,110,4,G#3,3'
p1168
(F0.0
F-0.40728476821191995
F0.54
F-0.40728476821191995
tp1169
sS'P1,100,4,E3,0'
p1170
(F0.0
F-1.0269562977782698e-14
F0.59
F-1.0269562977782698e-14
tp1171
sS'P1,40,1,B4,1'
p1172
(F0.0
F-0.17106382978723078
F0.48
F-0.17106382978723078
tp1173
sS'P1,20,1,A4,2'
p1174
(F0.0
F-0.43043478260869583
F0.71
F-0.43043478260869583
tp1175
sS'P1,55,1,B5,3'
p1176
(F0.052978808476602524
F-0.3246701319472295
F0.96
F-0.3246701319472295
tp1177
sS'P1,52,1,G#4,0'
p1178
(F0.04472271914132885
F-0.3329159212880096
F0.96
F-0.3329159212880096
tp1179
sS'P1,20,1,C5,3'
p1180
(F0.0
F-0.43043478260869583
F0.71
F-0.43043478260869583
tp1181
sS'P1,80,1,E5,1'
p1182
(F0.0
F-0.0016629711751657839
F0.93
F-0.0016629711751657839
tp1183
sS'P1,68,4,E#3,0'
p1184
(F0.0
F-0.10958904109588802
F0.58
F-0.10958904109588802
tp1185
sS'P1,103,1,C#5,3'
p1186
(F0.0015151515151515804
F0.00202020202020202
F0.8
F0.00202020202020202
tp1187
sS'P1,103,1,C#5,0'
p1188
(F0.0
F0.0005050505050505083
F0.91
F0.0005050505050505083
tp1189
sS'P1,41,4,A3,0'
p1190
(F0.0
F-0.02849488553336621
F0.48
F-0.02849488553336621
tp1191
sS'P1,22,1,D5,4'
p1192
(F0.00110864745010808
F-0.4212860310421318
F0.63
F-0.4212860310421318
tp1193
sS'P1,54,4,A3,0'
p1194
(F0.07511569953719749
F-0.00836596653613364
F0.98
F-0.00836596653613364
tp1195
sS'P1,54,4,A3,1'
p1196
(F0.027945888216447834
F-0.3524385902456372
F0.73
F-0.3524385902456372
tp1197
sS'P1,54,4,A3,2'
p1198
(F0.0
F-0.3689740420271942
F0.73
F-0.3689740420271942
tp1199
sS'P1,54,4,A3,3'
p1200
(F0.024103831891223115
F-0.34487021013597097
F0.73
F-0.34487021013597097
tp1201
sS'P1,66,1,C#5,4'
p1202
(F0.0
F0.20414847161572774
F0.63
F0.20414847161572774
tp1203
sS'P1,66,1,C#5,7'
p1204
(F0.0010917030567805242
F0.0
F0.61
F0.0
tp1205
sS'P1,102,1,C#5,6'
p1206
(F0.0011337868480788549
F0.0005668934240455892
F0.91
F0.0005668934240455892
tp1207
sS'P1,10,1,E5,0'
p1208
(F0.0
F-0.36700251889168733
F0.58
F-0.36700251889168733
tp1209
sS'P1,36,4,G3,0'
p1210
(F0.0
F0.0
F0.49
F0.0
tp1211
sS'P1,103,4,D3,2'
p1212
(F0.0
F-0.4070707070707071
F0.65
F-0.4070707070707071
tp1213
sS'P1,92,4,C#4,4'
p1214
(F0.0
F-0.35995623632385343
F0.49
F-0.35995623632385343
tp1215
sS'P1,92,4,C#4,6'
p1216
(F0.0010940919037119023
F-0.3588621444201414
F0.49
F-0.3588621444201414
tp1217
sS'P1,92,4,C#4,2'
p1218
(F0.0010940919037268904
F-0.3588621444201223
F0.49
F-0.3588621444201223
tp1219
sS'P1,22,1,B4,0'
p1220
(F0.0
F0.0022172949002217173
F0.66
F0.0022172949002217173
tp1221
sS'P1,22,1,B4,3'
p1222
(F0.00110864745010808
F-0.4212860310421318
F0.63
F-0.4212860310421318
tp1223
sS'P1,73,1,G#5,3'
p1224
(F0.001082251082246688
F0.0021645021645021515
F0.57
F0.0021645021645021515
tp1225
sS'P1,73,1,G#5,6'
p1226
(F-2.942091015256665e-15
F0.001082251082246688
F0.57
F0.001082251082246688
tp1227
sS'P1,38,1,C5,2'
p1228
(F0.0
F-0.42617449664429463
F0.57
F-0.42617449664429463
tp1229
sS'P1,109,4,B3,2'
p1230
(F9.992007221626409e-16
F-0.4077253218884108
F0.54
F-0.4077253218884108
tp1231
sS'P1,109,4,B3,6'
p1232
(F9.992007221626409e-16
F-0.4077253218884108
F0.54
F-0.4077253218884108
tp1233
sS'P1,109,4,B3,4'
p1234
(F0.0
F-0.4077253218884118
F0.54
F-0.4077253218884118
tp1235
sS'P1,126,1,B5,3'
p1236
(F0.024173913043490036
F-0.39026086956520534
F0.99
F-0.39026086956520534
tp1237
sS'P1,62,1,G#4,6'
p1238
(F0.015662650602404016
F-0.3879518072289223
F0.96
F-0.3879518072289223
tp1239
sS'P1,37,4,C3,2'
p1240
(F-0.07312252964427546
F-0.40931372549019546
F0.61
F-0.40931372549019546
tp1241
sS'P1,116,1,A5,5'
p1242
(F0.0
F-0.4094159713945159
F1.0
F-0.4094159713945159
tp1243
sS'P1,74,1,F#5,1'
p1244
(F0.001082251082257013
F1.176836406102666e-14
F0.57
F1.176836406102666e-14
tp1245
sS'P1,12,4,E4,2'
p1246
(F0.006024096385541466
F-0.36947791164658716
F0.49
F-0.36947791164658716
tp1247
sS'P1,106,4,B3,3'
p1248
(F0.0
F-0.37750556792873075
F0.49
F-0.37750556792873075
tp1249
sS'P1,127,1,F#4,0'
p1250
(F0.03967065868264565
F-0.3682634730538812
F0.93
F-0.3682634730538812
tp1251
sS'P1,106,4,B3,1'
p1252
(F-0.0011135857461034848
F-0.37861915367483423
F0.49
F-0.37861915367483423
tp1253
sS'P1,114,1,A4,4'
p1254
(F0.0
F-0.4002908184461989
F1.0
F-0.4002908184461989
tp1255
sS'P1,86,1,F#5,2'
p1256
(F0.0011494252873562871
F0.0017241379310345417
F0.93
F0.0017241379310345417
tp1257
sS'P1,97,4,E4,2'
p1258
(F-0.0010845986984707734
F-0.3492407809110487
F0.49
F-0.3492407809110487
tp1259
sS'P1,81,1,C#5,2'
p1260
(F-0.0022831050228280247
F-0.0011415525114109037
F0.89
F-0.0011415525114109037
tp1261
sS'P1,97,4,E4,6'
p1262
(F-0.0010570824524380185
F-0.3509513742071969
F0.49
F-0.3509513742071969
tp1263
sS'P1,97,4,E4,4'
p1264
(F0.0
F-0.3498942917547589
F0.49
F-0.3498942917547589
tp1265
sS'P1,28,1,B5,2'
p1266
(F0.0
F-0.36888888888888893
F1.0
F-0.36888888888888893
tp1267
sS'P1,4,1,A5,1'
p1268
(F0.0
F-0.3325358851674638
F0.97
F-0.3325358851674638
tp1269
sS'P1,110,1,B5,2'
p1270
(F0.0011037527593699137
F0.0005518763796729109
F0.61
F0.0005518763796729109
tp1271
sS'P1,67,1,G#5,5'
p1272
(F-0.0005827505827537272
F-0.0011655011655074543
F0.69
F-0.0011655011655074543
tp1273
sS'P1,67,1,G#5,3'
p1274
(F0.001152073732717418
F0.0023310023310023015
F0.69
F0.0023310023310023015
tp1275
sS'P1,51,1,A4,4'
p1276
(F0.04811393379523325
F-0.36874518860661337
F0.96
F-0.36874518860661337
tp1277
sS'P1,33,4,C4,1'
p1278
(F-0.041338582677166946
F-0.40944881889763995
F0.73
F-0.40944881889763995
tp1279
sS'P1,92,4,F#3,5'
p1280
(F0.0010940919037119023
F-0.3588621444201414
F0.49
F-0.3588621444201414
tp1281
sS'P1,102,1,A5,0'
p1282
(F0.0
F-0.0005668934240408985
F0.91
F-0.0005668934240408985
tp1283
sS'P1,83,4,C#4,3'
p1284
(F0.0
F-0.308755760368664
F0.61
F-0.308755760368664
tp1285
sS'P1,83,4,C#4,1'
p1286
(F-9.992007221626409e-16
F-0.30875576036866503
F0.61
F-0.30875576036866503
tp1287
sS'P1,83,4,C#4,5'
p1288
(F-9.992007221626409e-16
F-0.30875576036866503
F0.61
F-0.30875576036866503
tp1289
sS'P1,50,4,A3,0'
p1290
(F0.06652360515021472
F-0.042918454935621464
F0.84
F-0.042918454935621464
tp1291
sS'P1,50,4,A3,1'
p1292
(F0.01716738197424994
F-0.33905579399141506
F0.7
F-0.33905579399141506
tp1293
sS'P1,50,4,A3,2'
p1294
(F-0.002145922746779272
F-0.34326530612244865
F0.7
F-0.34326530612244865
tp1295
sS'P1,50,4,A3,3'
p1296
(F0.019183673469388762
F-0.32163265306122324
F0.7
F-0.32163265306122324
tp1297
sS'P1,72,4,C#4,0'
p1298
(F0.0
F-0.0019417475728331635
F0.48
F-0.0019417475728331635
tp1299
sS'P1,128,4,A2,0'
p1300
(F0.011976047904200267
F0.3538922155688603
F0.7
F0.3538922155688603
tp1301
sS'P1,112,1,A4,1'
p1302
(F0.0
F-0.3977091102823646
F1.0
F-0.3977091102823646
tp1303
sS'P1,93,1,D6,2'
p1304
(F5.995204332975845e-15
F8.992806499463768e-15
F0.74
F8.992806499463768e-15
tp1305
sS'P1,125,1,A4,2'
p1306
(F0.0
F-0.4053014973694883
F0.9
F-0.4053014973694883
tp1307
sS'P1,15,4,B2,3'
p1308
(F0.0
F-0.3137254901960784
F0.41
F-0.3137254901960784
tp1309
sS'P1,39,1,E5,1'
p1310
(F0.0
F-0.43216080402010043
F0.62
F-0.43216080402010043
tp1311
sS'P1,39,1,E5,3'
p1312
(F-0.038316582914572406
F-0.4704773869346728
F0.62
F-0.4704773869346728
tp1313
sS'P1,39,1,E5,4'
p1314
(F0.18141263940520835
F0.0427509293680306
F0.63
F0.0427509293680306
tp1315
sS'P1,41,4,C4,3'
p1316
(F-0.05698977106673242
F-0.4482660602615121
F0.43
F-0.4482660602615121
tp1317
sS'P1,41,4,C4,1'
p1318
(F-0.02849488553336621
F-0.42523136872869016
F0.43
F-0.42523136872869016
tp1319
sS'P1,41,4,C4,5'
p1320
(F-0.03439454235360906
F-0.4161455372370654
F0.43
F-0.4161455372370654
tp1321
sS'P1,74,4,G#3,0'
p1322
(F0.0
F-0.35281385281384936
F0.61
F-0.35281385281384936
tp1323
sS'P1,58,1,B5,3'
p1324
(F0.024041811846688077
F-0.3672473867595829
F0.96
F-0.3672473867595829
tp1325
sS'P1,28,1,A5,1'
p1326
(F0.0
F-0.3688888888888889
F1.0
F-0.3688888888888889
tp1327
sS'P1,90,4,G#3,0'
p1328
(F0.0
F-0.3639308855291582
F0.49
F-0.3639308855291582
tp1329
sS'P1,108,4,C#3,0'
p1330
(F0.0
F-0.31419624217119035
F0.64
F-0.31419624217119035
tp1331
sS'P1,66,1,D#5,5'
p1332
(F0.001091703056772586
F7.993605777301127e-15
F0.58
F7.993605777301127e-15
tp1333
sS'P1,106,4,G#3,0'
p1334
(F0.0
F-0.3596881959910916
F0.58
F-0.3596881959910916
tp1335
sS'P1,74,1,E#5,6'
p1336
(F-2.942091015256665e-15
F-0.0010822510822554587
F0.57
F-0.0010822510822554587
tp1337
sS'P1,74,1,E#5,3'
p1338
(F0.0010822510822687814
F0.0
F0.57
F0.0
tp1339
sS'P1,74,1,E#5,0'
p1340
(F0.0
F-0.001082251082245217
F0.57
F-0.001082251082245217
tp1341
sS'P1,81,4,C#4,5'
p1342
(F-0.0016987542468867023
F-0.31143827859569795
F0.56
F-0.31143827859569795
tp1343
sS'P1,81,4,C#4,1'
p1344
(F-0.0022831050228280247
F-0.3105022831050186
F0.56
F-0.3105022831050186
tp1345
sS'P1,81,4,C#4,3'
p1346
(F0.0
F-0.3097395243488113
F0.56
F-0.3097395243488113
tp1347
sS'P1,53,1,B5,5'
p1348
(F0.0335529024289799
F-0.3651708522025563
F0.96
F-0.3651708522025563
tp1349
sS'P1,60,1,A5,5'
p1350
(F0.0
F-0.42155397833395614
F0.96
F-0.42155397833395614
tp1351
sS'P1,58,1,G#4,6'
p1352
(F0.018548387096778085
F-0.36290322580644807
F0.96
F-0.36290322580644807
tp1353
sS'P1,42,1,E5,3'
p1354
(F-0.0819791062100993
F-0.04410911201393031
F0.65
F-0.04410911201393031
tp1355
sS'P1,42,1,E5,0'
p1356
(F0.0
F-0.362695608278648
F0.55
F-0.362695608278648
tp1357
sS'P1,113,1,A5,3'
p1358
(F0.0
F-0.4035672285378267
F1.0
F-0.4035672285378267
tp1359
sS'P1,60,1,G#4,0'
p1360
(F0.022968803565301885
F-0.13558450462804672
F0.96
F-0.13558450462804672
tp1361
sS'P1,30,1,F5,2'
p1362
(F0.0
F-0.38840262582056906
F0.68
F-0.38840262582056906
tp1363
sS'P1,30,4,B3,5'
p1364
(F0.0010940919037194519
F-0.2669584245076593
F0.49
F-0.2669584245076593
tp1365
sS'P1,6,4,E3,0'
p1366
(F0.06575486586007363
F0.032877432930036754
F0.61
F0.032877432930036754
tp1367
sS'P1,60,1,B5,7'
p1368
(F0.008778483376913115
F-0.412775494957043
F0.96
F-0.412775494957043
tp1369
sS'P1,101,1,G#5,6'
p1370
(F0.0011037527593849017
F0.0005518763796955595
F0.91
F0.0005518763796955595
tp1371
sS'P1,41,4,E4,4'
p1372
(F-0.05698977106673242
F-0.4482660602615121
F0.43
F-0.4482660602615121
tp1373
sS'P1,84,1,A#5,0'
p1374
(F0.0
F0.001052631578956964
F0.98
F0.001052631578956964
tp1375
sS'P1,41,4,E4,6'
p1376
(F-0.03439454235360906
F-0.4161455372370654
F0.43
F-0.4161455372370654
tp1377
sS'P1,41,4,E4,2'
p1378
(F-0.02849488553336621
F-0.42523136872869016
F0.43
F-0.42523136872869016
tp1379
sS'P1,115,1,B4,6'
p1380
(F0.036951501154732114
F-0.3660508083140904
F1.0
F-0.3660508083140904
tp1381
sS'P1,92,1,C#6,2'
p1382
(F0.0010940919037268904
F0.0005470459518703841
F0.7
F0.0005470459518703841
tp1383
sS'P1,92,1,C#6,0'
p1384
(F0.0
F-0.0005470459518564785
F0.6
F-0.0005470459518564785
tp1385
sS'P1,54,1,B4,2'
p1386
(F0.027945888216447834
F-0.38234247063011584
F0.96
F-0.38234247063011584
tp1387
sS'P1,92,1,C#6,6'
p1388
(F0.0010940919037119023
F0.0005470459518480686
F0.74
F0.0005470459518480686
tp1389
sS'P1,92,1,C#6,4'
p1390
(F0.0
F-0.000547045951863917
F0.74
F-0.000547045951863917
tp1391
sS'P1,97,4,C#4,1'
p1392
(F-0.0010845986984707734
F-0.3492407809110487
F0.49
F-0.3492407809110487
tp1393
sS'P1,97,4,C#4,3'
p1394
(F0.0
F-0.3498942917547589
F0.49
F-0.3498942917547589
tp1395
sS'P1,29,1,G#5,3'
p1396
(F0.0
F-0.38888888888888884
F0.8
F-0.38888888888888884
tp1397
sS'P1,97,4,C#4,5'
p1398
(F-0.0010570824524380185
F-0.3509513742071969
F0.49
F-0.3509513742071969
tp1399
sS'P1,14,4,E4,6'
p1400
(F0.024439332949971027
F-0.34675100632547484
F0.49
F-0.34675100632547484
tp1401
sS'P1,14,4,E4,4'
p1402
(F0.0
F-0.37119033927544576
F0.49
F-0.37119033927544576
tp1403
sS'P1,14,4,E4,2'
p1404
(F0.024490919097413855
F-0.358833241607044
F0.49
F-0.358833241607044
tp1405
sS'P1,83,1,F#5,5'
p1406
(F0.0011520737327183617
F0.0023041474654367233
F0.88
F0.0023041474654367233
tp1407
sS'P1,14,1,B5,0'
p1408
(F0.051183269124931256
F-0.3695652173913042
F1.06
F-0.3695652173913042
tp1409
sS'P1,113,1,B4,4'
p1410
(F0.015092120736974302
F-0.3884751078008525
F1.0
F-0.3884751078008525
tp1411
sS'P1,52,1,G#5,1'
p1412
(F0.04472271914132885
F-0.3329159212880096
F0.96
F-0.3329159212880096
tp1413
sS'P1,89,4,A3,3'
p1414
(F0.0
F-0.33910386965376454
F0.49
F-0.33910386965376454
tp1415
sS'P1,89,4,A3,1'
p1416
(F-0.0010183299389038836
F-0.34012219959267287
F0.49
F-0.34012219959267287
tp1417
sS'P1,117,4,A3,1'
p1418
(F0.01299890150127403
F-0.3595752471622211
F0.68
F-0.3595752471622211
tp1419
sS'P1,117,4,A3,0'
p1420
(F0.060417429512998014
F-0.03972903698279695
F0.92
F-0.03972903698279695
tp1421
sS'P1,117,4,A3,3'
p1422
(F0.01695616211743811
F-0.33912324234906377
F0.68
F-0.33912324234906377
tp1423
sS'P1,89,4,A3,5'
p1424
(F0.0010183299389103784
F-0.3380855397148542
F0.49
F-0.3380855397148542
tp1425
sS'P1,88,1,C#6,3'
p1426
(F0.0008944543828297569
F0.0013416815742445243
F0.6
F0.0013416815742445243
tp1427
sS'P1,88,1,C#6,1'
p1428
(F0.0
F0.00044722719141487843
F0.6
F0.00044722719141487843
tp1429
sS'P1,52,1,B5,7'
p1430
(F-0.002837684449491229
F-0.39841089670828855
F1.0
F-0.39841089670828855
tp1431
sS'P1,62,4,A3,1'
p1432
(F0.01449763991909192
F-0.3742414025623637
F0.71
F-0.3742414025623637
tp1433
sS'P1,49,1,A5,3'
p1434
(F-0.002029083530595166
F-0.3975609756097567
F0.98
F-0.3975609756097567
tp1435
sS'P1,62,4,A3,3'
p1436
(F0.015662650602404016
F-0.3662650602409707
F0.71
F-0.3662650602409707
tp1437
sS'P1,62,4,A3,2'
p1438
(F0.0
F-0.3819277108433748
F0.71
F-0.3819277108433748
tp1439
sS'P1,81,1,D5,3'
p1440
(F-0.0011415525114109037
F0.0
F0.89
F0.0
tp1441
sS'P1,65,4,F#3,0'
p1442
(F0.0
F-0.31149425287356325
F0.5
F-0.31149425287356325
tp1443
sS'P1,120,1,A5,3'
p1444
(F0.0
F-0.4226118500604593
F0.99
F-0.4226118500604593
tp1445
sS'P1,120,1,A5,1'
p1446
(F0.0
F-0.06053811659190711
F1.0
F-0.06053811659190711
tp1447
sS'P1,1,1,B4,2'
p1448
(F-0.03729533050333539
F-0.022892662219527016
F0.63
F-0.022892662219527016
tp1449
sS'P1,31,4,E3,4'
p1450
(F0.2988505747126461
F-0.005747126436777661
F0.45
F-0.005747126436777661
tp1451
sS'P1,31,4,E3,6'
p1452
g1087
sS'P1,31,4,E3,0'
p1453
(F0.0
F-0.39189189189189205
F0.45
F-0.39189189189189205
tp1454
sS'P1,31,4,E3,2'
p1455
(F-0.110492845786964
F-0.502384737678856
F0.45
F-0.502384737678856
tp1456
sS'P1,46,1,E5,1'
p1457
(F-0.001098901098903593
F-0.38901098901099207
F0.65
F-0.38901098901099207
tp1458
sS'P1,127,1,E4,6'
p1459
(F-0.03952095808384354
F-0.44251497005989193
F0.93
F-0.44251497005989193
tp1460
sS'P1,10,1,D#5,2'
p1461
(F-0.06902297842483773
F0.021969829854411538
F0.6
F0.021969829854411538
tp1462
sS'P1,66,4,B3,1'
p1463
(F0.0010799136069095105
F-0.39308855291576905
F0.4
F-0.39308855291576905
tp1464
sS'P1,66,4,B3,3'
p1465
(F0.0
F-0.39301310043667953
F0.4
F-0.39301310043667953
tp1466
sS'P1,115,4,D#3,2'
p1467
(F0.051963048498845046
F-0.002309468822173033
F0.89
F-0.002309468822173033
tp1468
sS'P1,66,4,B3,5'
p1469
(F7.993605777301127e-15
F-0.3930131004366716
F0.4
F-0.3930131004366716
tp1470
sS'P1,100,1,A#5,0'
p1471
(F0.0
F-1.0269562977782698e-14
F0.97
F-1.0269562977782698e-14
tp1472
sS'P1,119,1,B5,3'
p1473
(F0.04806964420891635
F-0.3747161241483895
F1.0
F-0.3747161241483895
tp1474
sS'P1,55,1,F#4,0'
p1475
(F0.04438224710115899
F-0.3596561375449837
F0.96
F-0.3596561375449837
tp1476
sS'P1,75,1,G#5,3'
p1477
(F0.0011848341232260085
F0.002293577981651381
F0.57
F0.002293577981651381
tp1478
sS'P1,75,1,G#5,5'
p1479
(F0.018348623853211565
F0.03440366972477171
F0.61
F0.03440366972477171
tp1480
sS'P1,99,1,G#5,6'
p1481
(F1.176836406102666e-14
F-0.0010822510822333653
F0.91
F-0.0010822510822333653
tp1482
sS'P1,38,1,B4,0'
p1483
(F0.0
F0.0
F0.71
F0.0
tp1484
sS'P1,45,1,A5,2'
p1485
(F0.0
F-0.386993603411513
F0.78
F-0.386993603411513
tp1486
sS'P1,115,1,A4,4'
p1487
(F0.04041570438799059
F-0.36258660508083196
F1.0
F-0.36258660508083196
tp1488
sS'P1,77,1,F#5,7'
p1489
(F-0.0005643340857665047
F0.0
F0.66
F0.0
tp1490
sS'P1,61,1,C#6,1'
p1491
(F0.018962432915926433
F0.0
F0.96
F0.0
tp1492
sS'P1,77,1,F#5,4'
p1493
(F0.0
F0.0005643340857828805
F0.66
F0.0005643340857828805
tp1494
sS'P1,103,4,A3,0'
p1495
(F0.0
F-0.4070707070707071
F0.65
F-0.4070707070707071
tp1496
sS'P1,86,4,D4,4'
p1497
(F0.0010940919037268904
F-0.2932166301969268
F0.57
F-0.2932166301969268
tp1498
sS'P1,86,4,D4,1'
p1499
(F0.0011494252873562871
F-0.2942528735632184
F0.57
F-0.2942528735632184
tp1500
sS'P1,45,4,A3,1'
p1501
(F0.03518123667377038
F-0.29637526652452495
F0.43
F-0.29637526652452495
tp1502
sS'P1,114,1,A5,5'
p1503
(F0.0
F-0.4002908184461989
F1.0
F-0.4002908184461989
tp1504
sS'P1,45,1,B5,1'
p1505
(F0.03518123667377038
F-0.3603411513859318
F0.84
F-0.3603411513859318
tp1506
sS'P1,12,4,E4,4'
p1507
(F0.0
F-0.36521987435750974
F0.49
F-0.36521987435750974
tp1508
sS'P1,12,4,E4,6'
p1509
(F0.032267275842376764
F-0.33295259851513304
F0.49
F-0.33295259851513304
tp1510
sS'P1,8,4,E3,0'
p1511
(F0.0
F-0.09758281110116285
F0.51
F-0.09758281110116285
tp1512
sS'P1,80,1,C#5,0'
p1513
(F0.0
F0.0
F0.57
F0.0
tp1514
sS'P1,80,1,C#5,3'
p1515
(F-0.0011086474501098564
F-0.0027716186252756403
F0.93
F-0.0027716186252756403
tp1516
sS'P1,121,1,A4,2'
p1517
(F0.0
F-0.4153175591531777
F0.88
F-0.4153175591531777
tp1518
sS'P1,80,4,E4,1'
p1519
(F0.0
F0.0
F0.49
F0.0
tp1520
sS'P1,94,4,B3,2'
p1521
(F-0.0011337868480663649
F-0.38095238095237327
F0.49
F-0.38095238095237327
tp1522
sS'P1,35,4,C4,1'
p1523
(F-0.03101265822784477
F-0.4531645569620214
F0.53
F-0.4531645569620214
tp1524
sS'P1,6,1,A5,2'
p1525
(F0.032877432930036754
F-0.3976854287217255
F0.88
F-0.3976854287217255
tp1526
sS'P1,6,1,A5,6'
p1527
(F0.03948967193195618
F-0.38031591737545567
F0.93
F-0.38031591737545567
tp1528
sS'P1,85,1,G#5,6'
p1529
(F-1.1601830607332886e-14
F-1.7430501486614958e-14
F0.93
F-1.7430501486614958e-14
tp1530
sS'P1,87,1,B4,4'
p1531
(F0.0
F-0.0005617977528115381
F0.67
F-0.0005617977528115381
tp1532
sS'P1,87,1,B4,7'
p1533
(F0.0005617977528012963
F0.0
F0.61
F0.0
tp1534
sS'P1,20,1,D5,5'
p1535
(F-1.27675647831893e-15
F-0.43043478260869705
F0.71
F-0.43043478260869705
tp1536
sS'P1,20,1,D5,1'
p1537
(F0.0
F0.0
F0.6
F0.0
tp1538
sS'P1,12,1,C6,2'
p1539
(F0.032267275842376764
F-0.3535122786978857
F0.81
F-0.3535122786978857
tp1540
sS'P1,12,1,C6,0'
p1541
(F0.01807228915662648
F0.03426613363792125
F0.5
F0.03426613363792125
tp1542
sS'P1,73,1,F#5,7'
p1543
(F0.001082251082246688
F0.0021645021645022157
F0.57
F0.0021645021645022157
tp1544
sS'P1,73,1,F#5,4'
p1545
(F0.0
F0.0010822510822495746
F0.57
F0.0010822510822495746
tp1546
sS'P1,29,4,E4,2'
p1547
(F1.7763568394002505e-15
F-0.26785714285714024
F0.49
F-0.26785714285714024
tp1548
sS'P1,67,1,E#5,1'
p1549
(F0.0011520737327183617
F0.0023041474654367233
F0.63
F0.0023041474654367233
tp1550
sS'P1,67,1,A5,6'
p1551
(F0.0011655011654947423
F0.0005827505827411539
F0.69
F0.0005827505827411539
tp1552
sS'P1,67,1,A5,4'
p1553
(F0.0
F-0.0005827505827537272
F0.69
F-0.0005827505827537272
tp1554
sS'P1,78,1,F#5,1'
p1555
(F-3.858025010572419e-15
F-7.716050021144838e-15
F0.66
F-7.716050021144838e-15
tp1556
sS'P1,37,4,C4,3'
p1557
(F-0.04656862745097734
F-0.36519607843136837
F0.61
F-0.36519607843136837
tp1558
sS'P1,125,1,A5,3'
p1559
(F0.0
F-0.4053014973694883
F0.99
F-0.4053014973694883
tp1560
sS'P1,127,1,B4,2'
p1561
(F0.04491017964072985
F-0.36302395209579696
F0.93
F-0.36302395209579696
tp1562
sS'P1,86,1,A5,0'
p1563
(F0.0
F0.06954022988505748
F0.98
F0.06954022988505748
tp1564
sS'P1,3,4,E4,5'
p1565
(F-0.05111111111111111
F-0.2844444444444445
F0.49
F-0.2844444444444445
tp1566
sS'P1,3,4,E4,2'
p1567
(F-0.080952380952381
F-0.3238095238095239
F0.49
F-0.3238095238095239
tp1568
sS'P1,75,4,C#4,2'
p1569
(F2.220446049250313e-15
F-0.32464454976303025
F0.49
F-0.32464454976303025
tp1570
sS'P1,75,4,C#4,4'
p1571
(F0.0
F-0.31192660550458673
F0.49
F-0.31192660550458673
tp1572
sS'P1,75,4,C#4,6'
p1573
(F0.03440366972477171
F-0.3027522935779803
F0.49
F-0.3027522935779803
tp1574
sS'P1,30,1,A5,0'
p1575
(F0.0
F-0.38840262582056906
F0.78
F-0.38840262582056906
tp1576
sS'P1,101,1,F#5,5'
p1577
(F-0.0005518763796894532
F-0.0011037527593789065
F0.91
F-0.0011037527593789065
tp1578
sS'P1,2,1,E5,3'
p1579
(F-0.07579185520361986
F-0.08144796380090513
F0.65
F-0.08144796380090513
tp1580
sS'P1,2,1,E5,1'
p1581
(F0.1832579185520362
F-0.07239819004524889
F0.65
F-0.07239819004524889
tp1582
sS'P1,2,1,E5,0'
p1583
(F-0.006064281382656245
F-0.4383886255924171
F0.59
F-0.4383886255924171
tp1584
sS'P1,23,1,C5,0'
p1585
(F0.0
F-0.4279519679786525
F0.63
F-0.4279519679786525
tp1586
sS'P1,23,1,C5,2'
p1587
(F-0.03969312875250197
F-0.4676450967311544
F0.54
F-0.4676450967311544
tp1588
sS'P1,23,1,C5,6'
p1589
(F-0.04034582132565079
F-0.005043227665708305
F0.63
F-0.005043227665708305
tp1590
sS'P1,81,1,G#5,6'
p1591
(F-0.0016987542468867023
F-0.0025481313703299424
F0.91
F-0.0025481313703299424
tp1592
sS'P1,51,1,G#4,2'
p1593
(F0.04509957048027169
F-0.37055837563452765
F0.96
F-0.37055837563452765
tp1594
sS'P1,53,1,B4,4'
p1595
(F0.0335529024289799
F-0.3651708522025563
F0.96
F-0.3651708522025563
tp1596
sS'P1,7,1,G5,4'
p1597
(F0.0
F-0.4156626506024096
F0.78
F-0.4156626506024096
tp1598
sS'P1,121,1,C#5,0'
p1599
(F0.06915477497255734
F0.0
F0.99
F0.0
tp1600
sS'P1,113,1,A4,2'
p1601
(F0.0
F-0.4035672285378267
F1.0
F-0.4035672285378267
tp1602
sS'P1,106,1,C#5,7'
p1603
(F-0.0016703786191551995
F-0.0022271714922069696
F0.61
F-0.0022271714922069696
tp1604
sS'P1,106,1,C#5,4'
p1605
(F0.0
F0.14866369710467625
F0.61
F0.14866369710467625
tp1606
sS'P1,48,4,A3,1'
p1607
(F0.00513778608126706
F-0.12330686595048979
F0.42
F-0.12330686595048979
tp1608
sS'P1,61,1,B4,4'
p1609
(F0.017801857585137304
F-0.38467492260062164
F0.96
F-0.38467492260062164
tp1610
sS'P1,60,1,E4,2'
p1611
(F0.010455947891665596
F-0.3496743229345254
F0.96
F-0.3496743229345254
tp1612
sS'P1,37,1,C5,0'
p1613
(F0.0
F-0.41897233201581086
F0.67
F-0.41897233201581086
tp1614
sS'P1,82,1,A5,0'
p1615
(F-0.00566251415628749
F0.19858757062146892
F0.94
F0.19858757062146892
tp1616
sS'P1,37,1,C5,6'
p1617
(F-0.022058823529406912
F-0.17401960784313175
F0.62
F-0.17401960784313175
tp1618
sS'P1,125,1,C#6,1'
p1619
(F0.04316020482810141
F-0.0021945866861621255
F0.99
F-0.0021945866861621255
tp1620
sS'P1,8,1,E5,0'
p1621
(F0.0
F-0.09758281110116285
F0.64
F-0.09758281110116285
tp1622
sS'P1,119,1,G#5,5'
p1623
(F0.04761904761904734
F-0.3787878787878795
F1.0
F-0.3787878787878795
tp1624
sS'P1,78,4,C#4,5'
p1625
(F-0.0010570824524235856
F-0.34038054968286513
F0.55
F-0.34038054968286513
tp1626
sS'P1,78,4,C#4,1'
p1627
(F-7.716050021144838e-15
F-0.3389830508474678
F0.55
F-0.3389830508474678
tp1628
sS'P1,78,4,C#4,3'
p1629
(F0.0
F-0.3393234672304415
F0.55
F-0.3393234672304415
tp1630
sS'P1,5,4,E4,2'
p1631
(F0.03212851405622419
F-0.37951807228915746
F0.55
F-0.37951807228915746
tp1632
sS'P1,7,1,E5,3'
p1633
(F0.0
F-0.4156626506024096
F0.78
F-0.4156626506024096
tp1634
sS'P1,5,4,E4,4'
p1635
(F0.0
F-0.3976918278228321
F0.55
F-0.3976918278228321
tp1636
sS'P1,5,4,E4,6'
p1637
(F0.038989394884591855
F-0.18652526512788437
F0.55
F-0.18652526512788437
tp1638
sS'P1,25,4,E4,6'
p1639
(F-0.03226727584237671
F-0.3837806967447186
F0.49
F-0.3837806967447186
tp1640
sS'P1,25,4,E4,4'
p1641
(F-0.05906108026249324
F-0.418332381496288
F0.49
F-0.418332381496288
tp1642
sS'P1,25,4,E4,2'
p1643
(F-0.02953054013124662
F-0.3982836951034827
F0.49
F-0.3982836951034827
tp1644
sS'P1,85,4,A3,0'
p1645
(F0.0
F-0.3400852878464806
F0.73
F-0.3400852878464806
tp1646
sS'P1,118,1,G#5,7'
p1647
(F0.026101141924957605
F-0.39314845024470013
F1.0
F-0.39314845024470013
tp1648
sS'P1,71,1,C#5,5'
p1649
(F-0.02922077922077959
F-0.05844155844155918
F0.62
F-0.05844155844155918
tp1650
sS'P1,127,1,F#5,1'
p1651
(F0.03967065868264565
F-0.3682634730538812
F0.99
F-0.3682634730538812
tp1652
sS'P1,45,4,E4,2'
p1653
(F0.03518123667377038
F-0.29637526652452495
F0.43
F-0.29637526652452495
tp1654
sS'P1,70,1,E5,6'
p1655
(F0.0011235955056282387
F0.0005617977528242779
F0.69
F0.0005617977528242779
tp1656
sS'P1,67,4,C#4,4'
p1657
(F0.0
F-0.3088578088578113
F0.4
F-0.3088578088578113
tp1658
sS'P1,67,4,C#4,6'
p1659
(F0.0011655011654947423
F-0.3076923076923165
F0.4
F-0.3076923076923165
tp1660
sS'P1,67,4,C#4,2'
p1661
(F-9.992007221626409e-16
F-0.30875576036866503
F0.4
F-0.30875576036866503
tp1662
sS'P1,122,1,C#6,1'
p1663
(F0.05016722408026817
F-0.1532887402452578
F0.99
F-0.1532887402452578
tp1664
sS'P1,89,4,C#4,6'
p1665
(F0.0010183299389103784
F-0.3380855397148542
F0.49
F-0.3380855397148542
tp1666
sS'P1,117,1,C#5,0'
p1667
(F0.058220432076161725
F0.0033085194375396445
F1.0
F0.0033085194375396445
tp1668
sS'P1,17,4,E3,2'
p1669
(F-0.07508305647840252
F-0.4943684633950106
F0.61
F-0.4943684633950106
tp1670
sS'P1,94,4,B3,6'
p1671
(F-0.001618122977340375
F-0.38079827400215016
F0.49
F-0.38079827400215016
tp1672
sS'P1,96,1,C#5,3'
p1673
(F-0.001240694789084118
F-0.0006203473945441962
F0.91
F-0.0006203473945441962
tp1674
sS'P1,36,1,B4,0'
p1675
(F0.0
F0.0
F0.55
F0.0
tp1676
sS'P1,105,1,A5,5'
p1677
(F-0.001020408163267622
F-4.6629367034256575e-15
F0.61
F-4.6629367034256575e-15
tp1678
sS'P1,105,1,A5,2'
p1679
(F-4.6629367034256575e-15
F0.001020408163258324
F0.61
F0.001020408163258324
tp1680
sS'P1,86,1,G#5,1'
p1681
(F0.0005747126436781436
F0.0011494252873562871
F0.93
F0.0011494252873562871
tp1682
sS'P1,14,4,E3,0'
p1683
(F0.051183269124931256
F0.026692350027518463
F0.49
F0.026692350027518463
tp1684
sS'P1,119,4,D3,1'
p1685
(F0.04806964420891635
F-0.25208175624528695
F0.68
F-0.25208175624528695
tp1686
sS'P1,116,1,E4,2'
p1687
(F0.014376996805108844
F-0.40255591054313433
F1.0
F-0.40255591054313433
tp1688
sS'P1,87,4,D3,2'
p1689
(F0.0
F-0.3382022471910129
F0.66
F-0.3382022471910129
tp1690
sS'P1,128,1,A4,0'
p1691
(F-0.005988023952109955
F0.3808383233532913
F0.93
F0.3808383233532913
tp1692
sS'P1,125,1,B5,5'
p1693
(F0.0269121813031038
F-0.3783893160663845
F0.99
F-0.3783893160663845
tp1694
sS'P1,116,1,G#4,0'
p1695
(F0.030883919062832624
F-0.10063897763578505
F1.0
F-0.10063897763578505
tp1696
sS'P1,79,1,B#4,4'
p1697
(F0.0
F-0.005364806866952315
F0.66
F-0.005364806866952315
tp1698
sS'P1,79,1,B#4,7'
p1699
(F-0.031115879828324755
F-0.02575107296137147
F0.62
F-0.02575107296137147
tp1700
sS'P1,113,4,A3,1'
p1701
(F0.015927977839316654
F-0.3407202216066689
F0.7
F-0.3407202216066689
tp1702
sS'P1,113,4,A3,0'
p1703
(F0.06509695290857612
F0.005540166204967778
F0.89
F0.005540166204967778
tp1704
sS'P1,113,4,A3,3'
p1705
(F0.015092120736974302
F-0.3320266562132388
F0.7
F-0.3320266562132388
tp1706
sS'P1,113,4,A3,2'
p1707
(F0.0
F-0.3471187769502131
F0.7
F-0.3471187769502131
tp1708
sS'P1,72,1,D6,2'
p1709
(F-0.0009727626459126171
F3.552713678800501e-15
F0.57
F3.552713678800501e-15
tp1710
sS'P1,84,1,D5,3'
p1711
(F0.0018518518518518823
F0.0012345679012345512
F0.93
F0.0012345679012345512
tp1712
sS'P1,99,4,A3,0'
p1713
(F0.0
F-0.2392290249433155
F0.76
F-0.2392290249433155
tp1714
sS'P1,17,4,C3,0'
p1715
(F0.0
F-0.42225913621262434
F0.61
F-0.42225913621262434
tp1716
sS'P1,82,4,G#3,3'
p1717
(F0.0
F-0.3382022471910129
F0.63
F-0.3382022471910129
tp1718
sS'P1,7,4,B2,3'
p1719
(F0.0
F-0.39959839357429716
F0.53
F-0.39959839357429716
tp1720
sS'P1,109,4,F#3,3'
p1721
(F0.0
F-0.4077253218884118
F0.54
F-0.4077253218884118
tp1722
sS'P1,109,4,F#3,1'
p1723
(F9.992007221626409e-16
F-0.4077253218884108
F0.54
F-0.4077253218884108
tp1724
sS'P1,118,1,A4,4'
p1725
(F0.0
F-0.4192495921696577
F1.0
F-0.4192495921696577
tp1726
sS'P1,109,4,F#3,5'
p1727
(F9.992007221626409e-16
F-0.4077253218884108
F0.54
F-0.4077253218884108
tp1728
sS'P1,65,4,C#4,6'
p1729
(F0.0010893246187378969
F-0.3986928104575145
F0.4
F-0.3986928104575145
tp1730
sS'P1,124,1,A5,5'
p1731
(F0.0
F-0.42511700468018765
F0.99
F-0.42511700468018765
tp1732
sS'P1,121,1,A5,3'
p1733
(F0.0
F-0.4153175591531777
F0.99
F-0.4153175591531777
tp1734
sS'P1,13,1,A5,2'
p1735
(F0.029569892473118253
F-0.3241935483870968
F0.69
F-0.3241935483870968
tp1736
sS'P1,13,1,A5,6'
p1737
(F0.026285046728970363
F-0.31016355140187124
F0.69
F-0.31016355140187124
tp1738
sS'P1,83,1,E5,4'
p1739
(F0.0
F0.0011520737327183617
F0.88
F0.0011520737327183617
tp1740
sS'P1,79,4,F#4,2'
p1741
(F-0.008235294117657554
F-0.3458823529411904
F0.55
F-0.3458823529411904
tp1742
sS'P1,79,4,F#4,4'
p1743
(F0.0
F-0.34334763948497826
F0.55
F-0.34334763948497826
tp1744
sS'P1,79,4,F#4,6'
p1745
(F-0.012875536480685734
F-0.3476394849785396
F0.55
F-0.3476394849785396
tp1746
sS'P1,43,1,A5,5'
p1747
(F-0.06556503198294705
F-0.06609808102346049
F0.65
F-0.06609808102346049
tp1748
sS'P1,43,1,A5,0'
p1749
(F0.16740088105727005
F-0.039647577092507325
F0.65
F-0.039647577092507325
tp1750
sS'P1,43,1,A5,3'
p1751
(F0.15351812366737638
F-0.06716417910448053
F0.65
F-0.06716417910448053
tp1752
sS'P1,43,1,A5,2'
p1753
(F-0.0803964757709198
F-0.06607929515417754
F0.65
F-0.06607929515417754
tp1754
sS'P1,46,4,F3,4'
p1755
(F-3.552713678800501e-15
F-0.3171806167400929
F0.43
F-0.3171806167400929
tp1756
sS'P1,91,1,B5,7'
p1757
(F-0.0005592841163356566
F0.0
F0.6
F0.0
tp1758
sS'P1,56,1,A4,0'
p1759
(F0.0
F-0.03913894324853051
F0.96
F-0.03913894324853051
tp1760
sS'P1,42,4,C4,5'
p1761
(F-0.07573998839233942
F-0.46198491004062736
F0.43
F-0.46198491004062736
tp1762
sS'P1,42,4,C4,3'
p1763
(F-0.05300353356891063
F-0.447185142193848
F0.43
F-0.447185142193848
tp1764
sS'P1,0,1,A4,0'
p1765
(F0.14321608040201006
F-0.07035175879396982
F0.63
F-0.07035175879396982
tp1766
sS'P1,0,1,A4,2'
p1767
(F-0.03643216080402001
F0.0
F0.63
F0.0
tp1768
sS'P1,111,4,A3,2'
p1769
(F-0.0010482180293530097
F-0.34800838574423854
F0.56
F-0.34800838574423854
tp1770
sS'P1,18,1,D5,3'
p1771
(F-0.0011547344110836022
F-0.42956120092378547
F0.62
F-0.42956120092378547
tp1772
sS'P1,18,1,D5,0'
p1773
(F0.0
F-0.44349680170575667
F0.67
F-0.44349680170575667
tp1774
sS'P1,25,4,C4,1'
p1775
(F-0.02953054013124662
F-0.3982836951034827
F0.49
F-0.3982836951034827
tp1776
sS'P1,25,4,C4,3'
p1777
(F-0.05906108026249324
F-0.418332381496288
F0.49
F-0.418332381496288
tp1778
sS'P1,25,4,C4,5'
p1779
(F-0.03226727584237671
F-0.3837806967447186
F0.49
F-0.3837806967447186
tp1780
sS'P1,38,2,G#4,0'
p1781
(F0.0
F-4.385380947269368e-15
F0.71
F-4.385380947269368e-15
tp1782
sS'P1,119,4,D3,0'
p1783
(F0.04844814534442455
F0.04806964420891635
F0.92
F0.04806964420891635
tp1784
sS'P1,21,1,C5,6'
p1785
(F-0.024447949526808843
F-0.0023659305993632973
F0.71
F-0.0023659305993632973
tp1786
sS'P1,101,1,E5,4'
p1787
(F0.0
F-0.0005518763796894532
F0.91
F-0.0005518763796894532
tp1788
sS'P1,21,1,C5,2'
p1789
(F-0.038461538461537714
F-0.4742474916387951
F0.71
F-0.4742474916387951
tp1790
sS'P1,33,4,E4,3'
p1791
(F-0.04807692307691963
F-0.3894230769230722
F0.73
F-0.3894230769230722
tp1792
sS'P1,109,1,C#6,7'
p1793
(F0.0010729613733919674
F0.0
F0.61
F0.0
tp1794
sS'P1,109,1,C#6,5'
p1795
(F0.0010729613733910237
F9.992007221626409e-16
F0.61
F9.992007221626409e-16
tp1796
sS'P1,109,1,C#6,3'
p1797
(F0.0010729613733919674
F0.0
F0.61
F0.0
tp1798
sS'P1,109,1,C#6,1'
p1799
(F0.0010729613733910237
F9.992007221626409e-16
F0.61
F9.992007221626409e-16
tp1800
sS'P1,3,4,A3,0'
p1801
(F-0.07692307692307698
F-0.07857142857142857
F0.57
F-0.07857142857142857
tp1802
sS'P1,3,4,A3,3'
p1803
(F-0.07857142857142863
F-0.05111111111111111
F0.57
F-0.05111111111111111
tp1804
sS'P1,54,1,A4,4'
p1805
(F0.0
F-0.4011124845488258
F0.96
F-0.4011124845488258
tp1806
sS'P1,121,1,B5,5'
p1807
(F0.028019925280186042
F-0.38729763387299154
F0.99
F-0.38729763387299154
tp1808
sS'P1,5,1,G5,4'
p1809
(F0.0
F-0.3702432938240797
F0.8
F-0.3702432938240797
tp1810
sS'P1,72,1,C#6,1'
p1811
(F0.0
F0.0009727626459161698
F0.57
F0.0009727626459161698
tp1812
sS'P1,72,1,C#6,3'
p1813
(F3.552713678800501e-15
F0.0009727626459197225
F0.57
F0.0009727626459197225
tp1814
sS'P1,48,4,A2,0'
p1815
(F0.010742643624471197
F-0.11770200840728562
F0.42
F-0.11770200840728562
tp1816
sS'P1,61,1,B5,5'
p1817
(F0.017801857585137304
F-0.38467492260062164
F0.96
F-0.38467492260062164
tp1818
sS'P1,85,1,C#5,2'
p1819
(F-0.0010660980810195397
F-0.0015991471215294206
F0.93
F-0.0015991471215294206
tp1820
sS'P1,75,1,A5,6'
p1821
(F0.03440366972477171
F0.018348623853212565
F0.65
F0.018348623853212565
tp1822
sS'P1,78,1,C#5,4'
p1823
(F0.0
F-0.0005285412262117928
F0.66
F-0.0005285412262117928
tp1824
sS'P1,78,1,C#5,7'
p1825
(F0.0005285412262272526
F0.0
F0.66
F0.0
tp1826
sS'P1,6,4,B3,3'
p1827
(F0.0
F-0.41008505467800727
F0.62
F-0.41008505467800727
tp1828
sS'P1,13,1,B5,0'
p1829
(F0.06290322580645162
F-0.3489247311827957
F1.03
F-0.3489247311827957
tp1830
sS'P1,6,4,B3,1'
p1831
(F0.032877432930036754
F-0.38926880589163604
F0.62
F-0.38926880589163604
tp1832
sS'P1,27,4,A3,3'
p1833
(F-0.07816277195810128
F0.11423779351472463
F0.49
F0.11423779351472463
tp1834
sS'P1,6,4,B3,5'
p1835
(F0.03948967193195618
F-0.3147023086269747
F0.62
F-0.3147023086269747
tp1836
sS'P1,20,4,G3,0'
p1837
(F0.0
F0.0
F0.49
F0.0
tp1838
sS'P1,38,1,D5,4'
p1839
(F-0.0011185682326576574
F-0.4272930648769523
F0.59
F-0.4272930648769523
tp1840
sS'P1,29,4,F3,4'
p1841
(F0.0
F-0.26888888888888884
F0.49
F-0.26888888888888884
tp1842
sS'P1,107,4,C#4,2'
p1843
(F0.0
F-0.37777777777777777
F0.49
F-0.37777777777777777
tp1844
sS'P1,97,1,E5,4'
p1845
(F0.0
F-0.0005285412262190092
F0.91
F-0.0005285412262190092
tp1846
sS'P1,2,4,E4,2'
p1847
(F-0.02701421800947873
F-0.36777251184834125
F0.49
F-0.36777251184834125
tp1848
sS'P1,2,4,E4,4'
p1849
(F-0.05118483412322283
F-0.3981900452488688
F0.49
F-0.3981900452488688
tp1850
sS'P1,2,4,E4,6'
p1851
(F-0.07013574660633487
F-0.407239819004525
F0.49
F-0.407239819004525
tp1852
sS'P1,13,4,E3,0'
p1853
(F0.06290322580645162
F0.0317204301075269
F0.49
F0.0317204301075269
tp1854
sS'P1,120,1,B4,4'
p1855
(F0.03688029020556349
F-0.3857315598548958
F0.91
F-0.3857315598548958
tp1856
sS'P1,107,1,B5,7'
p1857
(F1.5765166949677223e-14
F0.0
F0.61
F0.0
tp1858
sS'P1,41,1,C5,1'
p1859
(F0.19954519613416752
F-0.03439454235360906
F0.6
F-0.03439454235360906
tp1860
sS'P1,41,1,C5,0'
p1861
(F0.0
F-0.8986848514369217
F0.6
F-0.8986848514369217
tp1862
sS'P1,41,1,C5,3'
p1863
(F-0.016060261512221397
F0.0
F0.6
F0.0
tp1864
sS'P1,55,1,E5,7'
p1865
(F-0.009791535060012901
F-0.4377763739734677
F0.96
F-0.4377763739734677
tp1866
sS'P1,100,1,B4,5'
p1867
(F-0.0011415525114109037
F-0.002283105022824805
F0.91
F-0.002283105022824805
tp1868
sS'P1,39,1,C5,6'
p1869
(F-0.022118959107807368
F-0.14944237918215797
F0.56
F-0.14944237918215797
tp1870
sS'P1,35,1,G5,4'
p1871
(F0.17749244712990528
F-0.048338368580066515
F0.63
F-0.048338368580066515
tp1872
sS'P1,51,1,G#5,3'
p1873
(F0.04509957048027169
F-0.37055837563452765
F0.96
F-0.37055837563452765
tp1874
sS'P1,77,1,A5,5'
p1875
(F-0.0016930022573322656
F-0.0011286681715493851
F0.66
F-0.0011286681715493851
tp1876
sS'P1,77,1,A5,2'
p1877
(F-6.050715484207103e-15
F-9.103828801926284e-15
F0.66
F-9.103828801926284e-15
tp1878
sS'P1,77,1,A5,0'
p1879
(F0.0
F-3.0253577421035516e-15
F0.66
F-3.0253577421035516e-15
tp1880
sS'P1,118,1,G#4,6'
p1881
(F0.026101141924957605
F-0.39314845024470013
F1.0
F-0.39314845024470013
tp1882
sS'P1,98,1,C#5,6'
p1883
(F-0.0011135857461034848
F-0.0016703786191551995
F0.87
F-0.0016703786191551995
tp1884
sS'P1,51,1,B5,7'
p1885
(F0.046959199384153494
F-0.36989992301769314
F0.96
F-0.36989992301769314
tp1886
sS'P1,69,4,C#4,6'
p1887
(F-0.0011037527593789065
F-0.3399558498896208
F0.49
F-0.3399558498896208
tp1888
sS'P1,69,4,C#4,4'
p1889
(F0.0
F-0.33885209713024184
F0.49
F-0.33885209713024184
tp1890
sS'P1,69,4,C#4,2'
p1891
(F-1.099120794378905e-14
F-0.3392070484581643
F0.49
F-0.3392070484581643
tp1892
sS'P1,44,1,B5,2'
p1893
(F5.662137425588298e-15
F-0.38683127572015763
F0.9
F-0.38683127572015763
tp1894
sS'P1,27,4,A3,0'
p1895
(F-0.0776989166977915
F0.10273972602739423
F0.49
F0.10273972602739423
tp1896
sS'P1,69,1,B5,1'
p1897
(F-0.0011013215859085879
F-0.0022026431718171757
F0.69
F-0.0022026431718171757
tp1898
sS'P1,119,1,B4,2'
p1899
(F0.04806964420891635
F-0.3747161241483895
F0.91
F-0.3747161241483895
tp1900
sS'P1,56,1,A5,3'
p1901
(F0.0
F-0.43356643356643415
F0.96
F-0.43356643356643415
tp1902
sS'P1,56,1,A5,1'
p1903
(F0.0
F-0.03913894324853051
F0.96
F-0.03913894324853051
tp1904
sS'P1,67,4,F#3,0'
p1905
(F0.0
F-0.31105990783410176
F0.5
F-0.31105990783410176
tp1906
sS'P1,78,4,E4,2'
p1907
(F-7.716050021144838e-15
F-0.3389830508474678
F0.55
F-0.3389830508474678
tp1908
sS'P1,15,1,G5,4'
p1909
(F0.0
F-0.3607843137254902
F0.73
F-0.3607843137254902
tp1910
sS'P1,78,4,E4,4'
p1911
(F0.0
F-0.3393234672304415
F0.55
F-0.3393234672304415
tp1912
sS'P1,78,4,E4,6'
p1913
(F-0.0010570824524235856
F-0.34038054968286513
F0.55
F-0.34038054968286513
tp1914
sS'P1,86,4,B3,0'
p1915
(F0.0
F-0.3367816091954023
F0.65
F-0.3367816091954023
tp1916
sS'P1,63,1,E5,7'
p1917
(F-0.031760435571685175
F-0.4228675136116119
F0.91
F-0.4228675136116119
tp1918
sS'P1,125,1,B4,4'
p1919
(F0.0269121813031038
F-0.3783893160663845
F0.93
F-0.3783893160663845
tp1920
sS'P1,107,1,A5,4'
p1921
(F0.0
F5.218048215738236e-15
F0.61
F5.218048215738236e-15
tp1922
sS'P1,107,1,A5,6'
p1923
(F1.0436096431476471e-14
F1.5765166949677223e-14
F0.61
F1.5765166949677223e-14
tp1924
sS'P1,81,1,A4,0'
p1925
(F-0.004434589800441424
F-0.0034246575342450625
F0.89
F-0.0034246575342450625
tp1926
sS'P1,56,1,B5,5'
p1927
(F0.008741258741254199
F-0.38986013986014534
F0.96
F-0.38986013986014534
tp1928
sS'P1,87,1,A4,2'
p1929
(F-4.052314039881821e-15
F-0.0011210762331900215
F0.77
F-0.0011210762331900215
tp1930
sS'P1,99,1,C#5,2'
p1931
(F0.0011337868480633118
F0.0005668934240223855
F0.86
F0.0005668934240223855
tp1932
sS'P1,25,1,B4,2'
p1933
(F-0.03226727584237671
F-0.014991433466592041
F0.62
F-0.014991433466592041
tp1934
sS'P1,37,1,D5,5'
p1935
(F-0.04656862745097734
F-0.024509803921563766
F0.71
F-0.024509803921563766
tp1936
sS'P1,111,1,E#5,4'
p1937
(F0.0
F-0.00045537340618936883
F0.61
F-0.00045537340618936883
tp1938
sS'P1,111,1,E#5,7'
p1939
(F0.0004553734062042736
F0.0
F0.61
F0.0
tp1940
sS'P1,128,1,A5,1'
p1941
(F-0.005988023952109955
F0.3808383233532913
F0.99
F0.3808383233532913
tp1942
sS'P1,82,4,B3,0'
p1943
(F0.005649717514124294
F-0.33163841807909605
F0.63
F-0.33163841807909605
tp1944
sS'P1,42,1,E5,1'
p1945
(F0.18282066163668
F-0.03395240858966969
F0.65
F-0.03395240858966969
tp1946
sS'P1,102,4,E4,2'
p1947
(F0.0011337868480633118
F-0.3333333333333457
F0.49
F-0.3333333333333457
tp1948
sS'P1,118,1,A5,5'
p1949
(F0.0
F-0.4192495921696577
F1.0
F-0.4192495921696577
tp1950
sS'P1,102,4,E4,5'
p1951
(F0.0011337868480788549
F-0.33333333333332504
F0.49
F-0.33333333333332504
tp1952
sS'P1,114,4,A3,1'
p1953
(F0.014721532458310538
F-0.3597020219936222
F0.7
F-0.3597020219936222
tp1954
sS'P1,114,4,A3,2'
p1955
(F0.0
F-0.36539260490236847
F0.7
F-0.36539260490236847
tp1956
sS'P1,85,1,B4,1'
p1957
(F-0.0005330490405097699
F-0.0010660980810195397
F0.93
F-0.0010660980810195397
tp1958
sS'P1,94,1,D6,0'
p1959
(F0.0
F-0.0005668934240331824
F0.74
F-0.0005668934240331824
tp1960
sS'P1,85,4,E4,4'
p1961
(F0.0
F-0.29487179487179965
F0.57
F-0.29487179487179965
tp1962
sS'P1,85,4,E4,6'
p1963
(F-1.1601830607332886e-14
F-0.29487179487181125
F0.57
F-0.29487179487181125
tp1964
sS'P1,85,4,E4,2'
p1965
(F-0.0010660980810195397
F-0.29637526652451485
F0.57
F-0.29637526652451485
tp1966
sS'P1,103,1,E5,1'
p1967
(F0.0005050505050505083
F0.0010101010101010166
F0.88
F0.0010101010101010166
tp1968
sS'P1,59,1,G#5,3'
p1969
(F0.028828497980170287
F-0.32574366507528285
F0.96
F-0.32574366507528285
tp1970
sS'P1,69,1,A5,5'
p1971
(F-0.0005518763796894532
F-0.0011037527593789065
F0.69
F-0.0011037527593789065
tp1972
sS'P1,69,1,A5,0'
p1973
(F0.0
F-0.0011013215859085879
F0.69
F-0.0011013215859085879
tp1974
sS'P1,69,1,A5,2'
p1975
(F-1.099120794378905e-14
F-0.001101321585919579
F0.69
F-0.001101321585919579
tp1976
sS'P1,106,1,G#5,2'
p1977
(F-0.0011135857461034848
F-0.0016703786191551995
F0.61
F-0.0016703786191551995
tp1978
sS'P1,55,1,G#4,4'
p1979
(F0.048641819330381184
F-0.3888186986734085
F0.96
F-0.3888186986734085
tp1980
sS'P1,95,4,A3,2'
p1981
(F-0.004228329809731812
F-0.3245243128964149
F0.49
F-0.3245243128964149
tp1982
sS'P1,115,4,D3,0'
p1983
(F0.050384615384604536
F-0.0019230769230846878
F0.89
F-0.0019230769230846878
tp1984
sS'P1,115,4,D3,1'
p1985
(F0.03961538461537717
F-0.3196153846153911
F0.7
F-0.3196153846153911
tp1986
sS'P1,34,1,C5,1'
p1987
(F0.0
F-0.4092920353982311
F0.58
F-0.4092920353982311
tp1988
sS'P1,69,1,G#5,6'
p1989
(F-0.0011037527593789065
F-0.0016556291390683597
F0.69
F-0.0016556291390683597
tp1990
sS'P1,69,1,G#5,3'
p1991
(F-0.001101321585919579
F-0.002202643171828056
F0.69
F-0.002202643171828056
tp1992
sS'P1,116,1,B5,7'
p1993
(F0.022050059594763582
F-0.3873659117997523
F1.0
F-0.3873659117997523
tp1994
sS'P1,67,1,B5,7'
p1995
(F0.0005827505827411539
F0.0
F0.69
F0.0
tp1996
sS'P1,90,1,E#5,6'
p1997
(F-0.0010799136069133963
F-0.0005399568034586411
F0.6
F-0.0005399568034586411
tp1998
sS'P1,90,1,E#5,0'
p1999
(F0.0
F0.0005399568034547553
F0.6
F0.0005399568034547553
tp2000
sS'P1,90,1,E#5,3'
p2001
(F-0.0005399568034586411
F0.0
F0.6
F0.0
tp2002
sS'P1,106,1,D#5,5'
p2003
(F-0.0005567928730517424
F-0.0011135857461034848
F0.61
F-0.0011135857461034848
tp2004
sS'P1,50,1,B4,2'
p2005
(F0.023605150214593307
F-0.36695278969956957
F0.9
F-0.36695278969956957
tp2006
sS'P1,50,1,C#5,0'
p2007
(F0.05150214592274688
F-0.15021459227467743
F0.9
F-0.15021459227467743
tp2008
sS'P1,26,4,A3,0'
p2009
(F0.0
F0.1869300911854085
F0.49
F0.1869300911854085
tp2010
sS'P1,111,4,B3,5'
p2011
(F-0.0009107468123787377
F-0.3479052823315021
F0.56
F-0.3479052823315021
tp2012
sS'P1,49,4,A3,2'
p2013
(F-0.002029083530595166
F-0.3439024390243911
F0.7
F-0.3439024390243911
tp2014
sS'P1,49,4,A3,3'
p2015
(F0.01951219512194835
F-0.32195121951219896
F0.7
F-0.32195121951219896
tp2016
sS'P1,49,4,A3,0'
p2017
(F0.08488332769699555
F-0.021474467365565797
F0.84
F-0.021474467365565797
tp2018
sS'P1,49,4,A3,1'
p2019
(F0.02722353736896277
F-0.3307406154886625
F0.7
F-0.3307406154886625
tp2020
sS'P1,53,1,C#5,0'
p2021
(F0.07388137356919883
F0.012350761630300461
F1.07
F0.012350761630300461
tp2022
sS'P1,103,4,F#3,1'
p2023
(F0.0010101010101010166
F-0.4060606060606061
F0.65
F-0.4060606060606061
tp2024
sS'P1,27,4,C4,1'
p2025
(F-0.08098307816277489
F-0.4407735697018563
F0.49
F-0.4407735697018563
tp2026
sS'P1,27,4,C4,4'
p2027
(F-0.1384644055162107
F-0.5244129705553461
F0.49
F-0.5244129705553461
tp2028
sS'P1,112,4,A3,1'
p2029
(F0.0
F0.0
F0.56
F0.0
tp2030
sS'P1,34,4,G3,0'
p2031
(F0.0
F0.0
F0.49
F0.0
tp2032
sS'P1,112,1,B4,3'
p2033
(F0.013052743740014972
F-0.3846563665423498
F1.0
F-0.3846563665423498
tp2034
sS'P1,108,1,B#5,5'
p2035
(F-0.0011111111111111183
F0.0
F0.61
F0.0
tp2036
sS'P1,108,1,B#5,1'
p2037
(F-0.0015657620041758247
F-0.0010438413361178456
F0.61
F-0.0010438413361178456
tp2038
sS'P1,108,1,B#5,3'
p2039
(F-0.0005219206680598942
F0.0
F0.61
F0.0
tp2040
sS'P1,84,1,B5,1'
p2041
(F0.001052631578956964
F-0.34105263157893473
F0.92
F-0.34105263157893473
tp2042
sS'P1,46,4,C3,0'
p2043
(F0.0
F-0.3175824175824185
F0.49
F-0.3175824175824185
tp2044
sS'P1,121,1,B4,4'
p2045
(F0.028019925280186042
F-0.38729763387299154
F0.91
F-0.38729763387299154
tp2046
sS'P1,7,1,F#5,1'
p2047
(F0.035828877005347315
F-0.37647058823529456
F0.88
F-0.37647058823529456
tp2048
sS'P1,7,1,F#5,6'
p2049
(F-0.05220883534136528
F-0.44779116465863433
F0.74
F-0.44779116465863433
tp2050
sS'P1,39,4,C4,3'
p2051
(F-0.04423791821561185
F-0.394795539033457
F0.49
F-0.394795539033457
tp2052
sS'P1,104,4,A2,0'
p2053
(F0.0
F-0.38825541619156134
F0.58
F-0.38825541619156134
tp2054
sS'P1,100,1,B5,1'
p2055
(F-1.0269562977782698e-14
F-0.32644628099174944
F0.91
F-0.32644628099174944
tp2056
sS'P1,39,1,D5,5'
p2057
(F-0.04423791821561185
F0.009107806691448839
F0.58
F0.009107806691448839
tp2058
sS'P1,75,1,A5,4'
p2059
(F0.0
F0.016055045871560203
F0.61
F0.016055045871560203
tp2060
sS'P1,71,4,D#4,5'
p2061
(F-0.0602968460111325
F-0.3858998144712441
F0.54
F-0.3858998144712441
tp2062
sS'P1,98,1,D5,5'
p2063
(F-0.0005567928730517424
F-0.0011135857461034848
F0.91
F-0.0011135857461034848
tp2064
sS'P1,71,4,D#4,3'
p2065
(F0.0
F-0.36270871985157727
F0.54
F-0.36270871985157727
tp2066
sS'P1,71,4,D#4,1'
p2067
(F-0.0011389521640049471
F-0.3462414578587645
F0.54
F-0.3462414578587645
tp2068
sS'P1,114,1,C#5,0'
p2069
(F0.029443064916626915
F-0.08318552678255547
F1.0
F-0.08318552678255547
tp2070
sS'P1,101,1,C#5,2'
p2071
(F-0.0011037527593789065
F-0.0016556291390683597
F0.91
F-0.0016556291390683597
tp2072
sS'P1,111,1,F#5,5'
p2073
(F-0.00045537340618936883
F-0.0009107468123787377
F0.61
F-0.0009107468123787377
tp2074
sS'P1,2,1,D#5,2'
p2075
(F-0.07013574660633487
F-0.07579185520361986
F0.65
F-0.07579185520361986
tp2076
sS'P1,119,1,E5,7'
p2077
(F0.023809523809520616
F-0.4025974025974062
F1.0
F-0.4025974025974062
tp2078
sS'P1,27,4,E4,2'
p2079
(F-0.08098307816277489
F-0.4407735697018563
F0.49
F-0.4407735697018563
tp2080
sS'P1,115,1,F#5,1'
p2081
(F0.03884615384614292
F-0.36423076923077946
F1.0
F-0.36423076923077946
tp2082
sS'P1,90,1,F#5,1'
p2083
(F0.0005399568034547553
F0.0010799136069095105
F0.6
F0.0010799136069095105
tp2084
sS'P1,98,1,E5,4'
p2085
(F0.0
F-0.0005567928730517424
F0.91
F-0.0005567928730517424
tp2086
sS'P1,77,4,A3,5'
p2087
(F-0.0011286681715493851
F-0.3295711060947971
F0.49
F-0.3295711060947971
tp2088
sS'P1,98,1,E5,3'
p2089
(F-0.0011415525114109037
F0.0
F0.91
F0.0
tp2090
sS'P1,72,1,C#5,0'
p2091
(F0.0
F-0.0019417475728331635
F0.58
F-0.0019417475728331635
tp2092
sS'P1,85,4,C#4,1'
p2093
(F-0.0010660980810195397
F-0.29637526652451485
F0.57
F-0.29637526652451485
tp2094
sS'P1,85,4,C#4,3'
p2095
(F0.0
F-0.29487179487179965
F0.57
F-0.29487179487179965
tp2096
sS'P1,85,4,C#4,5'
p2097
(F-1.1601830607332886e-14
F-0.29487179487181125
F0.57
F-0.29487179487181125
tp2098
sS'P1,77,4,A3,1'
p2099
(F-6.050715484207103e-15
F-0.32432432432433256
F0.49
F-0.32432432432433256
tp2100
sS'P1,91,4,A3,3'
p2101
(F0.0
F-0.3389261744966453
F0.49
F-0.3389261744966453
tp2102
sS'P1,53,4,A3,0'
p2103
(F0.0801248699271593
F-0.06607700312174775
F0.98
F-0.06607700312174775
tp2104
sS'P1,53,4,A3,3'
p2105
(F0.0335529024289799
F-0.31576780568135443
F0.73
F-0.31576780568135443
tp2106
sS'P1,53,4,A3,2'
p2107
(F0.0
F-0.3493207081103344
F0.73
F-0.3493207081103344
tp2108
sS'P1,86,1,C#5,6'
p2109
(F0.0010940919037268904
F0.0005470459518703841
F0.93
F0.0005470459518703841
tp2110
sS'P1,35,1,G5,3'
p2111
(F-0.03101265822784477
F-0.449367088607591
F0.67
F-0.449367088607591
tp2112
sS'P1,91,4,A3,5'
p2113
(F-0.0011185682326652069
F-0.3400447427293104
F0.49
F-0.3400447427293104
tp2114
sS'P1,35,1,G5,1'
p2115
(F0.0
F-0.41455696202531583
F0.67
F-0.41455696202531583
tp2116
sS'P1,96,4,F#3,0'
p2117
(F0.0
F0.0
F0.49
F0.0
tp2118
sS'P1,73,1,A5,2'
p2119
(F-2.942091015256665e-15
F0.001082251082246688
F0.57
F0.001082251082246688
tp2120
sS'P1,73,1,A5,0'
p2121
(F0.0
F0.0010822510822495746
F0.57
F0.0010822510822495746
tp2122
sS'P1,14,1,F#5,5'
p2123
(F0.024439332949971027
F-0.31224841863139774
F0.59
F-0.31224841863139774
tp2124
sS'P1,76,1,D6,5'
p2125
(F-0.0005241090146765048
F-0.0010482180293530097
F0.66
F-0.0010482180293530097
tp2126
sS'P1,73,1,A5,5'
p2127
(F0.0010822510822495746
F0.002164502164499149
F0.57
F0.002164502164499149
tp2128
sS'P1,68,1,B#5,3'
p2129
(F0.0011415525114201186
F0.002277904328018242
F0.69
F0.002277904328018242
tp2130
sS'P1,68,1,B#5,1'
p2131
(F0.0011415525114170655
F0.002283105022834131
F0.69
F0.002283105022834131
tp2132
sS'P1,82,1,G#5,1'
p2133
(F-0.0025423728813559476
F-0.001694915254237317
F0.93
F-0.001694915254237317
tp2134
sS'P1,63,4,D3,1'
p2135
(F0.028604118993137195
F-0.3226544622425601
F0.64
F-0.3226544622425601
tp2136
sS'P1,63,4,D3,0'
p2137
(F0.04118993135011458
F-0.014874141876428215
F0.81
F-0.014874141876428215
tp2138
sS'P1,35,1,F5,5'
p2139
(F-0.048338368580066515
F-0.024169184290038337
F0.63
F-0.024169184290038337
tp2140
sS'P1,64,1,A4,0'
p2141
(F0.0
F0.001964636542239682
F0.84
F0.001964636542239682
tp2142
sS'P1,79,1,D#5,3'
p2143
(F-0.004117647058839435
F0.0
F0.66
F0.0
tp2144
sS'P1,79,1,D#5,0'
p2145
(F0.0
F-0.002941176470593526
F0.66
F-0.002941176470593526
tp2146
sS'P1,72,1,B5,4'
p2147
(F-0.0009727626459090644
F0.0
F0.57
F0.0
tp2148
sS'P1,79,1,D#5,6'
p2149
(F-0.012875536480685734
F-0.0075107296137324475
F0.62
F-0.0075107296137324475
tp2150
sS'P1,89,4,F#3,0'
p2151
(F0.0
F0.0010183299388965006
F0.49
F0.0010183299388965006
tp2152
sS'P1,84,1,C#5,4'
p2153
(F0.0012345679012345512
F0.0006172839506172201
F0.93
F0.0006172839506172201
tp2154
sS'P1,94,1,A5,5'
p2155
(F-0.0018878101402343972
F-0.0037756202804687944
F0.74
F-0.0037756202804687944
tp2156
sS'P1,94,1,A5,3'
p2157
(F0.0005668934240455892
F0.0
F0.74
F0.0
tp2158
sS'P1,107,4,F#3,0'
p2159
(F0.0
F-0.35777777777777775
F0.58
F-0.35777777777777775
tp2160
sS'P1,70,1,G#5,2'
p2161
(F0.0011235955056128066
F0.0005617977528012963
F0.69
F0.0005617977528012963
tp2162
sS'P1,13,4,E4,6'
p2163
(F0.026285046728970363
F-0.34287383177570296
F0.49
F-0.34287383177570296
tp2164
sS'P1,124,1,E4,2'
p2165
(F0.019485162674308
F-0.4118698605648764
F0.91
F-0.4118698605648764
tp2166
sS'P1,13,4,E4,4'
p2167
(F-0.001612903225806428
F-0.3709112149532714
F0.49
F-0.3709112149532714
tp2168
sS'P1,13,4,E4,2'
p2169
(F0.029569892473118253
F-0.35430107526881716
F0.49
F-0.35430107526881716
tp2170
sS'P1,48,1,A4,1'
p2171
(F0.0032406157169862135
F-0.4011612206319205
F0.91
F-0.4011612206319205
tp2172
sS'P1,48,1,A4,0'
p2173
(F-0.03071364046974101
F-0.07706679121905557
F0.57
F-0.07706679121905557
tp2174
sS'P1,99,4,E4,2'
p2175
(F0.0011337868480633118
F-0.3469387755102161
F0.49
F-0.3469387755102161
tp2176
sS'P1,99,4,E4,4'
p2177
(F0.0
F-0.3484848484848449
F0.49
F-0.3484848484848449
tp2178
sS'P1,99,4,E4,6'
p2179
(F1.176836406102666e-14
F-0.3484848484848331
F0.49
F-0.3484848484848331
tp2180
sS'P1,79,4,D#4,5'
p2181
(F-0.012875536480685734
F-0.3476394849785396
F0.55
F-0.3476394849785396
tp2182
sS'P1,79,4,D#4,3'
p2183
(F0.0
F-0.34334763948497826
F0.55
F-0.34334763948497826
tp2184
sS'P1,79,4,D#4,1'
p2185
(F-0.008235294117657554
F-0.3458823529411904
F0.55
F-0.3458823529411904
tp2186
sS'P1,69,4,F#3,0'
p2187
(F0.0
F-0.40088105726872464
F0.71
F-0.40088105726872464
tp2188
sS'P1,65,1,G#5,3'
p2189
(F0.0017241379310345417
F0.0021786492374727736
F0.69
F0.0021786492374727736
tp2190
sS'P1,65,1,G#5,6'
p2191
(F0.0010893246187378969
F0.0016339869281069008
F0.69
F0.0016339869281069008
tp2192
sS'P1,123,4,D3,1'
p2193
(F0.038522012578609544
F-0.32468553459120053
F0.66
F-0.32468553459120053
tp2194
sS'P1,123,4,D3,0'
p2195
(F0.040880503144643004
F0.038522012578609544
F0.89
F0.038522012578609544
tp2196
sS'P1,78,1,D#5,5'
p2197
(F-0.0005285412262117928
F-0.0010570824524235856
F0.66
F-0.0010570824524235856
tp2198
sS'P1,118,1,C#5,0'
p2199
(F0.06735751295335783
F-0.09067357512954005
F1.0
F-0.09067357512954005
tp2200
sS'P1,1,4,A3,0'
p2201
(F0.0
F0.18995163890381506
F0.57
F0.18995163890381506
tp2202
sS'P1,94,1,B5,6'
p2203
(F-0.001618122977340375
F-0.0035059331175748554
F0.74
F-0.0035059331175748554
tp2204
sS'P1,94,1,B5,2'
p2205
(F-0.0011337868480663649
F-0.001700680272099464
F0.74
F-0.001700680272099464
tp2206
sS'P1,46,1,F5,2'
p2207
(F0.0
F-0.38766519823788625
F0.61
F-0.38766519823788625
tp2208
sS'P1,64,4,A2,0'
p2209
(F0.0
F0.001964636542239682
F0.69
F0.001964636542239682
tp2210
sS'P1,4,4,E4,6'
p2211
(F0.03588516746411574
F-0.3349282296650705
F0.52
F-0.3349282296650705
tp2212
sS'P1,4,4,E4,4'
p2213
(F0.0
F-0.3708133971291864
F0.52
F-0.3708133971291864
tp2214
sS'P1,47,4,E3,4'
p2215
(F0.2890695573622348
F-0.042908762420962476
F0.42
F-0.042908762420962476
tp2216
sS'P1,107,1,F#5,0'
p2217
(F0.0
F0.0011111111111111183
F0.61
F0.0011111111111111183
tp2218
sS'P1,47,4,E3,0'
p2219
(F0.0
F-0.4040742650850956
F0.49
F-0.4040742650850956
tp2220
sS'P1,47,4,E3,2'
p2221
(F-0.11165549252191914
F-0.5157297576070148
F0.49
F-0.5157297576070148
tp2222
sS'P1,50,1,A5,5'
p2223
(F-0.002145922746779272
F-0.3824489795918365
F0.96
F-0.3824489795918365
tp2224
sS'P1,50,1,B5,3'
p2225
(F0.01716738197424994
F-0.37339055793991294
F0.96
F-0.37339055793991294
tp2226
sS'P1,101,1,A4,0'
p2227
(F0.0
F-0.0005518763796894532
F0.91
F-0.0005518763796894532
tp2228
sS'P1,54,1,G#5,7'
p2229
(F0.024103831891223115
F-0.37700865265760264
F0.96
F-0.37700865265760264
tp2230
sS'P1,70,1,D#5,5'
p2231
(F-0.0005617977528039053
F-0.0011235955056078106
F0.64
F-0.0011235955056078106
tp2232
sS'P1,117,4,A3,2'
p2233
(F-0.014646649578923365
F-0.37262200165427234
F0.68
F-0.37262200165427234
tp2234
sS'P1,25,1,C5,3'
p2235
(F-0.01727584237578672
F0.0
F0.62
F0.0
tp2236
sS'P1,25,1,C5,1'
p2237
(F0.20045688178183854
F-0.03226727584237671
F0.62
F-0.03226727584237671
tp2238
sS'P1,25,1,C5,0'
p2239
(F0.0
F-0.8970217062089854
F0.56
F-0.8970217062089854
tp2240
sS'P1,107,1,E#5,1'
p2241
(F-0.0011111111111111183
F0.0
F0.61
F0.0
tp2242
sS'P1,62,1,B4,2'
p2243
(F0.01449763991909192
F-0.39447066756573534
F0.96
F-0.39447066756573534
tp2244
sS'P1,68,1,C#6,0'
p2245
(F0.0
F0.0011415525114170655
F0.69
F0.0011415525114170655
tp2246
sS'P1,68,1,C#6,2'
p2247
(F3.1086244689504383e-15
F0.0011415525114201186
F0.69
F0.0011415525114201186
tp2248
sS'P1,68,1,C#6,4'
p2249
(F0.0
F0.0005694760820066369
F0.69
F0.0005694760820066369
tp2250
sS'P1,68,1,C#6,6'
p2251
(F0.0011389521640132738
F0.0017084282460199107
F0.69
F0.0017084282460199107
tp2252
sS'P1,40,4,E3,0'
p2253
(F0.0
F-0.17106382978723078
F0.37
F-0.17106382978723078
tp2254
sS'P1,46,1,D5,3'
p2255
(F-3.552713678800501e-15
F-0.3876651982378898
F0.61
F-0.3876651982378898
tp2256
sS'P1,23,4,A2,0'
p2257
(F0.0
F-0.4079386257505004
F0.49
F-0.4079386257505004
tp2258
sS'P1,99,1,A5,7'
p2259
(F-0.0010822510822333653
F-0.00216450216447861
F0.91
F-0.00216450216447861
tp2260
sS'P1,63,1,F#5,1'
p2261
(F0.029748283752860535
F-0.367276887871853
F0.96
F-0.367276887871853
tp2262
sS'P1,62,4,A3,0'
p2263
(F0.04315576534053121
F-0.013823331085628443
F0.88
F-0.013823331085628443
tp2264
sS'P1,95,4,G#3,4'
p2265
(F-0.03736991485336172
F-0.34437086092715685
F0.49
F-0.34437086092715685
tp2266
sS'P1,23,4,C4,3'
p2267
(F-0.0734870317002907
F-0.46109510086455574
F0.49
F-0.46109510086455574
tp2268
sS'P1,55,1,G#5,5'
p2269
(F0.048641819330381184
F-0.3888186986734085
F0.96
F-0.3888186986734085
tp2270
sS'P1,100,4,D4,2'
p2271
(F-1.0269562977782698e-14
F-0.35330578512398036
F0.49
F-0.35330578512398036
tp2272
sS'P1,100,4,D4,4'
p2273
(F0.0
F-0.3538812785388119
F0.49
F-0.3538812785388119
tp2274
sS'P1,100,4,D4,6'
p2275
(F3.1086244689504383e-15
F-0.3538812785388089
F0.49
F-0.3538812785388089
tp2276
sS'P1,90,1,G#5,2'
p2277
(F0.0010799136069095105
F0.0016198704103641548
F0.6
F0.0016198704103641548
tp2278
sS'P1,45,4,B3,5'
p2279
(F0.0010660980810273113
F-0.31769722814498413
F0.43
F-0.31769722814498413
tp2280
sS'P1,115,1,F#4,0'
p2281
(F0.03884615384614292
F-0.36423076923077946
F1.0
F-0.36423076923077946
tp2282
sS'P1,62,1,B5,3'
p2283
(F0.01449763991909192
F-0.39447066756573534
F0.96
F-0.39447066756573534
tp2284
sS'P1,30,4,A3,2'
p2285
(F-0.0010940919037203956
F-0.2691466083150992
F0.49
F-0.2691466083150992
tp2286
sS'P1,70,4,C#4,5'
p2287
(F0.0011235955056282387
F-0.3438202247190877
F0.49
F-0.3438202247190877
tp2288
sS'P1,70,4,C#4,1'
p2289
(F0.0011235955056128066
F-0.3438202247191079
F0.49
F-0.3438202247191079
tp2290
sS'P1,70,4,C#4,3'
p2291
(F0.0
F-0.3449438202247159
F0.49
F-0.3449438202247159
tp2292
sS'P1,84,1,B4,5'
p2293
(F0.0006172839506172201
F0.0
F0.93
F0.0
tp2294
sS'P1,14,1,A5,6'
p2295
(F0.024439332949971027
F-0.31224841863139774
F0.71
F-0.31224841863139774
tp2296
sS'P1,14,1,A5,2'
p2297
(F0.024490919097413855
F-0.3280132085855799
F0.71
F-0.3280132085855799
tp2298
sS'P1,82,1,D5,5'
p2299
(F-0.0005617977528115381
F-0.0011235955056230762
F0.93
F-0.0011235955056230762
tp2300
sS'P1,36,1,A4,2'
p2301
(F0.0
F-0.40869565217391257
F0.65
F-0.40869565217391257
tp2302
sS'P1,102,1,B4,7'
p2303
(F0.0005668934240455892
F0.0
F0.91
F0.0
tp2304
sS'P1,87,1,C#5,3'
p2305
(F-0.0011210762331900215
F-0.002242152466375824
F0.73
F-0.002242152466375824
tp2306
sS'P1,89,4,C#4,4'
p2307
(F0.0
F-0.33910386965376454
F0.49
F-0.33910386965376454
tp2308
sS'P1,87,1,C#5,0'
p2309
(F0.0
F-0.0011210762331858581
F0.88
F-0.0011210762331858581
tp2310
sS'P1,94,4,B3,4'
p2311
(F0.0
F-0.3791801510248098
F0.49
F-0.3791801510248098
tp2312
sS'P1,89,4,C#4,2'
p2313
(F-0.0010183299389038836
F-0.34012219959267287
F0.49
F-0.34012219959267287
tp2314
sS'P1,118,1,B4,2'
p2315
(F0.022575869726123687
F-0.4041450777202116
F1.0
F-0.4041450777202116
tp2316
sS'P1,82,1,F#5,2'
p2317
(F-0.001694915254237317
F-0.0008474576271186862
F0.93
F-0.0008474576271186862
tp2318
sS'P1,104,4,A3,1'
p2319
(F-0.0005701254275904399
F-0.013683010262250606
F0.53
F-0.013683010262250606
tp2320
sS'P1,20,1,B4,4'
p2321
(F-1.27675647831893e-15
F-0.43043478260869705
F0.71
F-0.43043478260869705
tp2322
sS'P1,20,1,B4,0'
p2323
(F0.0
F0.0
F0.48
F0.0
tp2324
sS'P1,65,4,C#4,2'
p2325
(F0.0011494252873562871
F-0.39770114942528734
F0.4
F-0.39770114942528734
tp2326
sS'P1,5,1,E5,3'
p2327
(F0.0
F-0.3702432938240797
F0.8
F-0.3702432938240797
tp2328
sS'P1,65,4,C#4,4'
p2329
(F0.0
F-0.39978213507625243
F0.4
F-0.39978213507625243
tp2330
sS'P1,116,1,A4,4'
p2331
(F0.0
F-0.4094159713945159
F1.0
F-0.4094159713945159
tp2332
sS'P1,26,1,D#5,2'
p2333
(F-0.06854688083675542
F-0.0720022413149014
F0.62
F-0.0720022413149014
tp2334
sS'P1,62,1,A5,5'
p2335
(F0.0
F-0.4036144578313263
F0.96
F-0.4036144578313263
tp2336
sS'P1,127,1,G#4,4'
p2337
(F0.03832335329340426
F-0.38622754491018896
F0.93
F-0.38622754491018896
tp2338
sS'P1,107,4,C#4,6'
p2339
(F1.0436096431476471e-14
F-0.3781512605041887
F0.49
F-0.3781512605041887
tp2340
sS'P1,107,4,C#4,4'
p2341
(F0.0
F-0.3781512605041991
F0.49
F-0.3781512605041991
tp2342
sS'P1,83,1,B4,1'
p2343
(F-0.0011520737327193886
F-9.992007221626409e-16
F0.82
F-9.992007221626409e-16
tp2344
sS'P1,24,1,A4,4'
p2345
(F-0.03571428571428614
F0.0
F0.62
F0.0
tp2346
sS'P1,24,1,A4,2'
p2347
(F0.14285714285714274
F-0.07142857142857173
F0.62
F-0.07142857142857173
tp2348
sS'P1,23,1,E5,3'
p2349
(F-0.03969312875250197
F-0.4676450967311544
F0.62
F-0.4676450967311544
tp2350
sS'P1,23,1,E5,1'
p2351
(F0.0
F-0.4279519679786525
F0.63
F-0.4279519679786525
tp2352
sS'P1,23,1,E5,4'
p2353
(F0.1714697406340032
F-0.0734870317002907
F0.63
F-0.0734870317002907
tp2354
sS'P1,114,4,A3,0'
p2355
(F0.048598793898535476
F-0.00017736786095168267
F0.89
F-0.00017736786095168267
tp2356
sS'P1,74,1,C#5,4'
p2357
(F0.0
F0.20887445887445616
F0.57
F0.20887445887445616
tp2358
sS'P1,74,1,C#5,7'
p2359
(F-0.0010822510822554587
F-0.002164502164508031
F0.57
F-0.002164502164508031
tp2360
sS'P1,114,4,A3,3'
p2361
(F0.020980473618610773
F-0.3444121312837577
F0.7
F-0.3444121312837577
tp2362
sS'P1,124,1,G#4,0'
p2363
(F0.038970325348598456
F-0.3923846978905859
F0.91
F-0.3923846978905859
tp2364
sS'P1,65,1,A5,0'
p2365
(F0.0
F0.0005747126436781436
F0.69
F0.0005747126436781436
tp2366
sS'P1,65,1,A5,2'
p2367
(F0.0011494252873562871
F0.0017241379310345417
F0.69
F0.0017241379310345417
tp2368
sS'P1,65,1,A5,5'
p2369
(F0.0005446623093689484
F0.0010893246187378969
F0.69
F0.0010893246187378969
tp2370
sS'P1,95,1,G#5,6'
p2371
(F-0.03736991485336172
F-0.0186849574266843
F0.74
F-0.0186849574266843
tp2372
sS'P1,46,4,E3,1'
p2373
(F-0.001098901098903593
F-0.3186813186813221
F0.43
F-0.3186813186813221
tp2374
sS'P1,42,4,E4,4'
p2375
(F-0.05300353356891063
F-0.447185142193848
F0.43
F-0.447185142193848
tp2376
sS'P1,42,4,E4,6'
p2377
(F-0.07573998839233942
F-0.46198491004062736
F0.43
F-0.46198491004062736
tp2378
sS'P1,35,4,C3,0'
p2379
(F0.0
F-0.3708860759493662
F0.49
F-0.3708860759493662
tp2380
sS'P1,77,4,A3,3'
p2381
(F0.0
F-0.3284424379232478
F0.49
F-0.3284424379232478
tp2382
sS'P1,42,4,E4,2'
p2383
(F-0.027511357900053546
F-0.41645633518425407
F0.43
F-0.41645633518425407
tp2384
sS'P1,47,1,C5,0'
p2385
(F0.0
F-0.22331098504383828
F0.61
F-0.22331098504383828
tp2386
sS'P1,89,1,G#5,6'
p2387
(F0.0010183299389103784
F0.0015274949083656786
F0.6
F0.0015274949083656786
tp2388
sS'P1,89,1,G#5,3'
p2389
(F-0.0005091649694556333
F0.0
F0.6
F0.0
tp2390
sS'P1,24,1,B4,1'
p2391
(F-0.005043227665708305
F-0.12887828162290615
F0.55
F-0.12887828162290615
tp2392
sS'P1,48,1,A5,2'
p2393
(F-0.002802428771600751
F-0.4076424520658929
F0.96
F-0.4076424520658929
tp2394
sS'P1,52,1,E4,2'
p2395
(F0.021288014311273695
F-0.39928443649373546
F0.96
F-0.39928443649373546
tp2396
sS'P1,114,1,B5,3'
p2397
(F0.014721532458310538
F-0.3916282369634698
F1.0
F-0.3916282369634698
tp2398
sS'P1,88,4,A2,0'
p2399
(F0.0
F-0.4273182957393481
F0.62
F-0.4273182957393481
tp2400
sS'P1,45,4,D3,3'
p2401
(F0.0
F-0.3187633262260114
F0.49
F-0.3187633262260114
tp2402
sS'P1,53,1,C#6,1'
p2403
(F0.06347554630593139
F0.0024701523260600923
F1.07
F0.0024701523260600923
tp2404
sS'P1,95,1,B5,1'
p2405
(F-0.003699788583512831
F-0.004228329809731812
F0.74
F-0.004228329809731812
tp2406
sS'P1,79,1,C#5,5'
p2407
(F-0.005364806866952315
F-0.01072961373390463
F0.66
F-0.01072961373390463
tp2408
sS'P1,22,1,C5,2'
p2409
(F0.0
F-0.4223946784922399
F0.63
F-0.4223946784922399
tp2410
sS'P1,102,4,D4,4'
p2411
(F0.0011337868480788549
F-0.33333333333332504
F0.49
F-0.33333333333332504
tp2412
sS'P1,110,1,C#6,1'
p2413
(F0.0016556291390668054
F0.0011037527593699137
F0.61
F0.0011037527593699137
tp2414
sS'P1,6,1,B5,0'
p2415
(F0.06575486586007363
F-0.38584955286691214
F1.06
F-0.38584955286691214
tp2416
sS'P1,64,1,D6,3'
p2417
(F0.0014734774066793022
F0.0009823182711189427
F0.69
F0.0009823182711189427
tp2418
sS'P1,102,4,D4,1'
p2419
(F0.0011337868480633118
F-0.3333333333333457
F0.49
F-0.3333333333333457
tp2420
sS'P1,96,1,B4,4'
p2421
(F-0.0006203473945441962
F0.0
F0.87
F0.0
tp2422
sS'P1,87,4,A3,0'
p2423
(F0.0
F-0.338565022421526
F0.66
F-0.338565022421526
tp2424
sS'P1,116,1,B4,6'
p2425
(F0.022050059594763582
F-0.3873659117997523
F1.0
F-0.3873659117997523
tp2426
sS'P1,112,4,F#3,0'
p2427
(F0.0
F0.0
F0.56
F0.0
tp2428
sS'P1,21,1,C5,0'
p2429
(F0.0
F-0.43578595317725743
F0.71
F-0.43578595317725743
tp2430
sS'P1,101,4,C#4,1'
p2431
(F-0.0011037527593789065
F-0.3355408388520932
F0.49
F-0.3355408388520932
tp2432
sS'P1,101,4,C#4,3'
p2433
(F0.0
F-0.3344370860927143
F0.49
F-0.3344370860927143
tp2434
sS'P1,101,4,C#4,5'
p2435
(F0.0011037527593849017
F-0.33333333333332926
F0.49
F-0.33333333333332926
tp2436
sS'P1,100,1,E5,2'
p2437
(F0.0
F-0.0011415525114140124
F0.91
F-0.0011415525114140124
tp2438
sS'P1,60,1,A4,4'
p2439
(F0.0
F-0.42155397833395614
F0.96
F-0.42155397833395614
tp2440
sS'P1,60,1,G#5,1'
p2441
(F0.022968803565301885
F-0.13558450462804672
F0.96
F-0.13558450462804672
tp2442
sS'P1,95,4,C#3,0'
p2443
(F0.005285412262156377
F-0.323467230443977
F0.63
F-0.323467230443977
tp2444
sS'P1,95,4,C#3,3'
p2445
(F0.004730368968779532
F-0.33632923368022816
F0.63
F-0.33632923368022816
tp2446
sS'P1,50,1,A4,4'
p2447
(F0.004897959183673479
F-0.37510204081632625
F0.9
F-0.37510204081632625
tp2448
sS'P1,83,1,G#5,6'
p2449
(F-9.992007221626409e-16
F0.001152073732717418
F0.93
F0.001152073732717418
tp2450
sS'P1,11,1,G#5,1'
p2451
(F-0.08243451463790735
F0.014252696456082181
F0.6
F0.014252696456082181
tp2452
sS'P1,11,1,G#5,4'
p2453
(F-0.13039014373716534
F0.044661190965094466
F0.6
F0.044661190965094466
tp2454
sS'P1,101,1,D5,3'
p2455
(F0.0005518763796955595
F0.0
F0.91
F0.0
tp2456
sS'P1,110,4,B2,0'
p2457
(F0.0
F-0.29470198675497183
F0.64
F-0.29470198675497183
tp2458
sS'P1,112,1,A5,2'
p2459
(F0.0
F-0.3977091102823646
F1.0
F-0.3977091102823646
tp2460
sS'P1,105,1,B5,1'
p2461
(F-0.001020408163267622
F-4.6629367034256575e-15
F0.61
F-4.6629367034256575e-15
tp2462
sS'P1,115,4,D#3,3'
p2463
(F0.036951501154732114
F-0.3060046189376473
F0.7
F-0.3060046189376473
tp2464
sS'P1,97,4,A3,0'
p2465
(F0.0
F-0.23969631236441952
F0.76
F-0.23969631236441952
tp2466
sS'P1,77,1,B5,1'
p2467
(F-3.0253577421035516e-15
F-6.050715484207103e-15
F0.66
F-6.050715484207103e-15
tp2468
sS'P1,51,4,D#3,2'
p2469
(F0.04811393379523325
F-0.00615858352577775
F0.84
F-0.00615858352577775
tp2470
sS'P1,51,4,D#3,3'
p2471
(F0.046959199384153494
F-0.2936874518860524
F0.7
F-0.2936874518860524
tp2472
sS'P1,8,1,A4,3'
p2473
(F-0.03571428571428503
F0.037325038880248726
F0.59
F0.037325038880248726
tp2474
sS'P1,48,1,B5,4'
p2475
(F-0.01552795031056109
F-0.4053470159330299
F0.96
F-0.4053470159330299
tp2476
sS'P1,19,4,E3,2'
p2477
(F-0.07737321196359292
F-0.4854182655410619
F0.49
F-0.4854182655410619
tp2478
sS'P1,102,4,B3,0'
p2479
(F0.0
F-0.24829931972789582
F0.71
F-0.24829931972789582
tp2480
sS'P1,102,4,G#3,3'
p2481
(F0.0
F-0.24829931972788805
F0.71
F-0.24829931972788805
tp2482
sS'P1,95,1,F#5,5'
p2483
(F-0.020104068117314716
F-0.03736991485336172
F0.74
F-0.03736991485336172
tp2484
sS'P1,66,1,F#5,1'
p2485
(F0.0005399568034547553
F0.0010799136069095105
F0.69
F0.0010799136069095105
tp2486
sS'P1,89,1,B5,1'
p2487
(F-0.0015274949083521339
F-0.0010183299389038836
F0.6
F-0.0010183299389038836
tp2488
sS'P1,94,4,B2,0'
p2489
(F0.0
F-0.2641723356009041
F0.49
F-0.2641723356009041
tp2490
sS'P1,63,1,F#4,0'
p2491
(F0.029748283752860535
F-0.367276887871853
F0.96
F-0.367276887871853
tp2492
sS'P1,3,1,G#5,4'
p2493
(F-0.13333333333333336
F-0.1233333333333333
F0.83
F-0.1233333333333333
tp2494
sS'P1,3,1,G#5,1'
p2495
(F-0.080952380952381
F-0.07857142857142863
F0.71
F-0.07857142857142863
tp2496
sS'P1,11,4,C4,1'
p2497
(F-0.08243451463790735
F-0.4252696456086321
F0.49
F-0.4252696456086321
tp2498
sS'P1,119,4,E3,3'
p2499
(F0.023809523809520616
F-0.28571428571429003
F0.68
F-0.28571428571429003
tp2500
sS'P1,119,4,E3,2'
p2501
(F0.04761904761904734
F0.023809523809520616
F0.92
F0.023809523809520616
tp2502
sS'P1,91,1,A5,6'
p2503
(F-0.0011185682326652069
F-0.0005592841163356566
F0.6
F-0.0005592841163356566
tp2504
sS'P1,91,1,A5,4'
p2505
(F0.0
F0.0005592841163295503
F0.6
F0.0005592841163295503
tp2506
sS'P1,21,1,D5,5'
p2507
(F-0.046529968454254444
F-0.024447949526808843
F0.71
F-0.024447949526808843
tp2508
sS'P1,120,4,A2,0'
p2509
(F0.0
F-0.002242152466345293
F0.68
F-0.002242152466345293
tp2510
sS'P1,18,4,G3,0'
p2511
(F0.0
F-0.002132196162046407
F0.49
F-0.002132196162046407
tp2512
sS'P1,18,1,F5,4'
p2513
(F-0.0011547344110836022
F-0.42956120092378547
F0.62
F-0.42956120092378547
tp2514
sS'P1,51,1,F#5,1'
p2515
(F0.04139008199921309
F-0.3180398281921194
F0.96
F-0.3180398281921194
tp2516
sS'P1,61,1,C#5,0'
p2517
(F0.018962432915926433
F0.0
F0.96
F0.0
tp2518
sS'P1,122,1,B4,2'
p2519
(F0.025083612040140202
F-0.39687848383499824
F0.91
F-0.39687848383499824
tp2520
sS'P1,38,1,B4,3'
p2521
(F-0.0011185682326576574
F-0.4272930648769523
F0.59
F-0.4272930648769523
tp2522
sS'P1,7,4,E4,2'
p2523
(F0.035828877005347315
F-0.37647058823529456
F0.49
F-0.37647058823529456
tp2524
sS'P1,49,1,B5,5'
p2525
(F0.01951219512194835
F-0.3756097560975644
F0.98
F-0.3756097560975644
tp2526
sS'P1,67,1,F#5,0'
p2527
(F0.0
F0.0011520737327183617
F0.69
F0.0011520737327183617
tp2528
sS'P1,67,1,F#5,2'
p2529
(F-9.992007221626409e-16
F0.001152073732717418
F0.69
F0.001152073732717418
tp2530
sS'P1,96,4,A3,1'
p2531
(F0.0
F0.0
F0.35
F0.0
tp2532
sS'P1,29,4,B3,5'
p2533
(F0.0
F-0.26888888888888884
F0.49
F-0.26888888888888884
tp2534
sS'P1,66,1,E#5,3'
p2535
(F0.0016198704103641548
F0.0021834061135371525
F0.63
F0.0021834061135371525
tp2536
sS'P1,66,1,E#5,0'
p2537
(F0.0
F0.0005399568034547553
F0.63
F0.0005399568034547553
tp2538
sS'P1,66,1,E#5,6'
p2539
(F7.993605777301127e-15
F-0.0010917030567566544
F0.62
F-0.0010917030567566544
tp2540
sS'P1,43,4,E4,2'
p2541
(F-0.08149779735682489
F-0.440528634361229
F0.29
F-0.440528634361229
tp2542
sS'P1,44,1,A5,1'
p2543
(F0.0
F-0.35390946502057447
F0.88
F-0.35390946502057447
tp2544
sS'P1,105,1,G#5,6'
p2545
(F-4.6629367034256575e-15
F0.001020408163258324
F0.61
F0.001020408163258324
tp2546
sS'P1,29,4,E3,0'
p2547
(F0.0
F-0.267857142857142
F0.59
F-0.267857142857142
tp2548
sS'P1,105,1,G#5,3'
p2549
(F-0.0010204081632723128
F0.0
F0.61
F0.0
tp2550
sS'P1,49,1,C#6,1'
p2551
(F0.05850524179912596
F-0.002029083530595166
F0.96
F-0.002029083530595166
tp2552
sS'P1,87,4,F#3,1'
p2553
(F-4.052314039881821e-15
F-0.3385650224215301
F0.66
F-0.3385650224215301
tp2554
sS'P1,102,1,D5,5'
p2555
(F0.001700680272111954
F0.0011337868480788549
F0.91
F0.0011337868480788549
tp2556
sS'P1,45,1,C6,0'
p2557
(F0.0
F-0.3805970149253739
F0.9
F-0.3805970149253739
tp2558
sS'P1,37,4,A3,1'
p2559
(F-0.03557312252964756
F-0.38142292490119023
F0.61
F-0.38142292490119023
tp2560
sS'P1,19,4,C3,0'
p2561
(F0.0
F-0.41027308192457773
F0.49
F-0.41027308192457773
tp2562
sS'P1,124,1,G#5,1'
p2563
(F0.038970325348598456
F-0.3923846978905859
F0.99
F-0.3923846978905859
tp2564
sS'P1,117,1,B4,4'
p2565
(F0.04177005789907573
F-0.37634408602152014
F1.0
F-0.37634408602152014
tp2566
sS'P1,55,1,F#5,1'
p2567
(F0.04438224710115899
F-0.3596561375449837
F0.96
F-0.3596561375449837
tp2568
sS'P1,29,4,D3,3'
p2569
(F0.0
F-0.2688888888888889
F0.59
F-0.2688888888888889
tp2570
sS'P1,39,4,A3,1'
p2571
(F-0.038316582914572406
F-0.41206030150753703
F0.49
F-0.41206030150753703
tp2572
sS'P1,23,4,C3,2'
p2573
(F-0.07938625750500394
F-0.4841498559077836
F0.49
F-0.4841498559077836
tp2574
sS'P1,97,1,D5,3'
p2575
(F0.0005422993492570916
F0.0
F0.91
F0.0
tp2576
sS'P1,87,1,D5,5'
p2577
(F-0.0005617977528115381
F-0.0011235955056230762
F0.66
F-0.0011235955056230762
tp2578
sS'P1,18,1,E5,2'
p2579
(F0.0
F-0.4284064665127018
F0.62
F-0.4284064665127018
tp2580
sS'P1,127,1,B5,3'
p2581
(F0.04491017964072985
F-0.36302395209579696
F0.99
F-0.36302395209579696
tp2582
sS'P1,114,1,B4,2'
p2583
(F0.014721532458310538
F-0.3916282369634698
F1.0
F-0.3916282369634698
tp2584
sS'P1,123,1,G#4,2'
p2585
(F0.038522012578609544
F-0.38128930817610673
F0.91
F-0.38128930817610673
tp2586
sS'P1,1,4,E4,4'
p2587
(F-0.05857066093498131
F-0.38902365069739236
F0.49
F-0.38902365069739236
tp2588
sS'P1,1,4,E4,6'
p2589
(F-0.03729533050333539
F-0.3602183141297757
F0.49
F-0.3602183141297757
tp2590
sS'P1,1,4,E4,2'
p2591
(F-0.029285330467490656
F-0.3723804406233209
F0.49
F-0.3723804406233209
tp2592
sS'P1,87,1,E5,1'
p2593
(F0.0011210762331818058
F-4.052314039881821e-15
F0.83
F-4.052314039881821e-15
tp2594
sS'P1,0,1,G#4,1'
p2595
(F-0.07286432160804018
F-0.03643216080402001
F0.63
F-0.03643216080402001
tp2596
sS'P1,66,4,G#3,0'
p2597
(F0.0
F-0.312095032397409
F0.5
F-0.312095032397409
tp2598
sS'P1,29,1,A5,2'
p2599
(F0.0
F-0.3888888888888889
F0.9
F-0.3888888888888889
tp2600
sS'P1,63,1,B5,3'
p2601
(F0.028604118993137195
F-0.36842105263157643
F0.96
F-0.36842105263157643
tp2602
sS'P1,3,4,C4,1'
p2603
(F-0.080952380952381
F-0.3238095238095239
F0.49
F-0.3238095238095239
tp2604
sS'P1,14,4,B3,1'
p2605
(F0.024490919097413855
F-0.358833241607044
F0.49
F-0.358833241607044
tp2606
sS'P1,14,4,B3,3'
p2607
(F0.0
F-0.37119033927544576
F0.49
F-0.37119033927544576
tp2608
sS'P1,14,4,B3,5'
p2609
(F0.024439332949971027
F-0.34675100632547484
F0.49
F-0.34675100632547484
tp2610
sS'P1,111,4,G#3,4'
p2611
(F-0.0009107468123787377
F-0.3479052823315021
F0.56
F-0.3479052823315021
tp2612
sS'P1,13,1,F#5,5'
p2613
(F0.026285046728970363
F-0.31016355140187124
F0.64
F-0.31016355140187124
tp2614
sS'P1,15,1,E5,3'
p2615
(F0.0
F-0.3607843137254902
F0.49
F-0.3607843137254902
tp2616
sS'P1,13,1,F#5,1'
p2617
(F0.029569892473118253
F-0.3241935483870968
F0.64
F-0.3241935483870968
tp2618
sS'P1,16,4,E3,0'
p2619
(F0.0
F0.0
F0.41
F0.0
tp2620
sS'P1,126,1,G#4,6'
p2621
(F0.021846661170656367
F-0.3841714756801259
F0.93
F-0.3841714756801259
tp2622
sS'P1,17,1,E5,0'
p2623
(F0.0
F-0.4282392026578071
F0.69
F-0.4282392026578071
tp2624
sS'P1,22,4,E3,0'
p2625
(F0.0
F0.0022172949002217173
F0.61
F0.0022172949002217173
tp2626
sS'P1,17,1,E5,2'
p2627
(F-0.05747508305647708
F-0.4777408637873738
F0.69
F-0.4777408637873738
tp2628
sS'P1,54,1,G#4,6'
p2629
(F0.024103831891223115
F-0.37700865265760264
F0.96
F-0.37700865265760264
tp2630
sS'P1,17,1,E5,6'
p2631
(F-0.022727272727272374
F0.0
F0.81
F0.0
tp2632
sS'P1,1,4,C4,3'
p2633
(F-0.05857066093498131
F-0.38902365069739236
F0.49
F-0.38902365069739236
tp2634
sS'P1,1,4,C4,1'
p2635
(F-0.029285330467490656
F-0.3723804406233209
F0.49
F-0.3723804406233209
tp2636
sS'P1,99,1,F#5,5'
p2637
(F0.001082251082257013
F1.176836406102666e-14
F0.91
F1.176836406102666e-14
tp2638
sS'P1,1,4,C4,5'
p2639
(F-0.03729533050333539
F-0.3602183141297757
F0.49
F-0.3602183141297757
tp2640
sS'P1,99,1,E5,4'
p2641
(F0.0
F-0.001082251082245217
F0.91
F-0.001082251082245217
tp2642
sS'P1,83,1,A5,7'
p2643
(F0.001152073732717418
F0.002105263157894777
F0.93
F0.002105263157894777
tp2644
sS'P1,15,4,E3,0'
p2645
(F0.04684788895315221
F-0.2634470792365524
F0.41
F-0.2634470792365524
tp2646
sS'P1,10,4,A3,0'
p2647
(F0.0
F-0.028463476070527904
F0.49
F-0.028463476070527904
tp2648
sS'P1,110,4,B3,2'
p2649
(F0.0011037527593699137
F-0.40618101545255303
F0.54
F-0.40618101545255303
tp2650
sS'P1,110,4,B3,4'
p2651
(F0.0
F-0.40728476821191995
F0.54
F-0.40728476821191995
tp2652
sS'P1,110,4,B3,6'
p2653
(F-0.0011037527593789065
F-0.40838852097129885
F0.54
F-0.40838852097129885
tp2654
sS'P1,123,1,B4,6'
p2655
(F0.03996023856857889
F-0.378926441351898
F0.91
F-0.378926441351898
tp2656
sS'P1,21,1,E5,4'
p2657
(F0.18138801261829993
F-0.046529968454254444
F0.71
F-0.046529968454254444
tp2658
sS'P1,8,1,G#4,2'
p2659
(F-0.07142857142857106
F0.010617760617761207
F0.59
F0.010617760617761207
tp2660
sS'P1,81,4,A3,0'
p2661
(F0.004566210045662129
F-0.3150684931506838
F0.73
F-0.3150684931506838
tp2662
sS'P1,37,1,E5,3'
p2663
(F-0.03557312252964756
F-0.45454545454545847
F0.74
F-0.45454545454545847
tp2664
sS'P1,37,1,E5,1'
p2665
(F0.0
F-0.41897233201581086
F0.74
F-0.41897233201581086
tp2666
sS'P1,110,1,D6,0'
p2667
(F0.0
F-0.000551876379696975
F0.61
F-0.000551876379696975
tp2668
sS'P1,57,1,A5,3'
p2669
(F0.0
F-0.4204639602319797
F0.96
F-0.4204639602319797
tp2670
sS'P1,30,4,D3,3'
p2671
(F0.0
F-0.26805251641137884
F0.59
F-0.26805251641137884
tp2672
sS'P1,91,4,F#3,0'
p2673
(F0.0
F-0.36383928571428625
F0.49
F-0.36383928571428625
tp2674
sS'P1,48,1,B4,3'
p2675
(F-0.007426411018095547
F-0.3972454766405643
F0.87
F-0.3972454766405643
tp2676
sS'P1,64,1,C#6,4'
p2677
(F0.0009823182711189427
F0.0004911591355585276
F0.69
F0.0004911591355585276
tp2678
sS'P1,36,1,C5,3'
p2679
(F0.0
F-0.40869565217391257
F0.65
F-0.40869565217391257
tp2680
sS'P1,64,1,C#6,2'
p2681
(F0.0
F-0.0004911591355603873
F0.69
F-0.0004911591355603873
tp2682
sS'P1,57,1,C#5,0'
p2683
(F0.06776180698151944
F-0.03696098562628425
F1.02
F-0.03696098562628425
tp2684
sS'P1,76,4,C#4,6'
p2685
(F0.001048218029347292
F-0.32285115303983614
F0.49
F-0.32285115303983614
tp2686
sS'P1,76,4,C#4,4'
p2687
(F0.0
F-0.32389937106918343
F0.49
F-0.32389937106918343
tp2688
sS'P1,76,4,C#4,2'
p2689
(F-0.012931034482759562
F-0.33189655172413923
F0.49
F-0.33189655172413923
tp2690
sS'P1,116,1,G#5,1'
p2691
(F0.030883919062832624
F-0.10063897763578505
F1.0
F-0.10063897763578505
tp2692
sS'P1,52,1,A5,5'
p2693
(F0.0
F-0.40919409761634545
F1.0
F-0.40919409761634545
tp2694
sS'P1,88,1,A4,0'
p2695
(F0.0
F-0.8421052631578942
F0.62
F-0.8421052631578942
tp2696
sS'P1,17,4,E4,3'
p2697
(F-0.04545454545454464
F-0.3185840707964598
F0.61
F-0.3185840707964598
tp2698
sS'P1,61,1,A5,3'
p2699
(F0.0
F-0.4024767801857589
F0.96
F-0.4024767801857589
tp2700
sS'P1,122,1,C#5,0'
p2701
(F0.05016722408026817
F-0.1532887402452578
F0.91
F-0.1532887402452578
tp2702
sS'P1,99,1,D5,3'
p2703
(F0.0005668934240223855
F0.0
F0.88
F0.0
tp2704
sS'P1,40,1,A4,4'
p2705
(F-0.034980744544288345
F0.0
F0.6
F0.0
tp2706
sS'P1,58,1,C#5,0'
p2707
(F0.05783972125435069
F-0.3355400696864152
F0.96
F-0.3355400696864152
tp2708
sS'P1,40,1,A4,2'
p2709
(F0.1424903722721436
F-0.0725288831835692
F0.6
F-0.0725288831835692
tp2710
sS'P1,17,1,G5,3'
p2711
(F-0.05747508305647708
F-0.4777408637873738
F0.88
F-0.4777408637873738
tp2712
sS'P1,17,1,G5,1'
p2713
(F0.0
F-0.4282392026578071
F0.88
F-0.4282392026578071
tp2714
sS'P1,17,1,G5,4'
p2715
(F0.18181818181818302
F-0.04545454545454464
F0.87
F-0.04545454545454464
tp2716
sS'P1,91,4,C#4,2'
p2717
(F-1.9984014443252818e-15
F-0.33928571428571697
F0.49
F-0.33928571428571697
tp2718
sS'P1,91,4,C#4,6'
p2719
(F-0.0011185682326652069
F-0.3400447427293104
F0.49
F-0.3400447427293104
tp2720
sS'P1,91,4,C#4,4'
p2721
(F0.0
F-0.3389261744966453
F0.49
F-0.3389261744966453
tp2722
sS'P1,126,1,C#6,1'
p2723
(F0.0483478260869668
F-0.030086956521727493
F0.99
F-0.030086956521727493
tp2724
sS'P1,95,1,F#5,3'
p2725
(F-0.004756871035950794
F-0.005285412262169831
F0.74
F-0.005285412262169831
tp2726
sS'P1,34,1,F5,4'
p2727
(F-5.495603971894525e-15
F-0.40929203539823666
F0.63
F-0.40929203539823666
tp2728
sS'P1,17,1,F5,5'
p2729
(F-0.04545454545454464
F-0.022727272727272374
F0.87
F-0.022727272727272374
tp2730
sS'P1,122,1,B5,3'
p2731
(F0.025083612040140202
F-0.39687848383499824
F0.99
F-0.39687848383499824
tp2732
sS'P1,79,1,E5,1'
p2733
(F-0.005294117647064056
F-0.008235294117657554
F0.66
F-0.008235294117657554
tp2734
sS'P1,90,4,B3,5'
p2735
(F-0.0010799136069133963
F-0.34125269978401995
F0.49
F-0.34125269978401995
tp2736
sS'P1,90,4,B3,1'
p2737
(F0.0010799136069095105
F-0.33909287257019705
F0.49
F-0.33909287257019705
tp2738
sS'P1,90,4,B3,3'
p2739
(F0.0
F-0.34017278617710645
F0.49
F-0.34017278617710645
tp2740
sS'P1,85,1,D5,3'
p2741
(F0.0005330490405175414
F0.0
F0.93
F0.0
tp2742
sS'P1,51,1,B4,6'
p2743
(F0.046959199384153494
F-0.36989992301769314
F0.96
F-0.36989992301769314
tp2744
sS'P1,73,1,B5,1'
p2745
(F0.0010822510822495746
F0.002164502164499149
F0.57
F0.002164502164499149
tp2746
sS'P1,34,1,E5,2'
p2747
(F0.0
F-0.4092920353982311
F0.58
F-0.4092920353982311
tp2748
sS'P1,71,1,E5,1'
p2749
(F0.0005694760820066369
F0.0011389521640132738
F0.69
F0.0011389521640132738
tp2750
sS'P1,70,1,E5,3'
p2751
(F0.0005617977528012963
F0.0
F0.69
F0.0
tp2752
sS'P1,70,1,E5,0'
p2753
(F0.0
F-0.0005617977528115381
F0.69
F-0.0005617977528115381
tp2754
sS'P1,85,1,F#5,5'
p2755
(F-5.800915303666443e-15
F-1.1601830607332886e-14
F0.93
F-1.1601830607332886e-14
tp2756
sS'P1,9,4,A3,0'
p2757
(F0.0
F-0.02721617418351613
F0.49
F-0.02721617418351613
tp2758
sS'P1,57,1,B5,5'
p2759
(F0.029411764705885135
F-0.3910521955260946
F0.96
F-0.3910521955260946
tp2760
sS'P1,47,1,B4,1'
p2761
(F0.1020776874435349
F-0.37420957542909283
F0.6
F-0.37420957542909283
tp2762
sS'P1,7,4,B3,1'
p2763
(F0.035828877005347315
F-0.37647058823529456
F0.49
F-0.37647058823529456
tp2764
sS'P1,47,1,B4,3'
p2765
(F-0.09270551038844099
F-0.046973803071367226
F0.59
F-0.046973803071367226
tp2766
sS'P1,7,4,B3,4'
p2767
(F-0.05220883534136528
F-0.44779116465863433
F0.49
F-0.44779116465863433
tp2768
sS'P1,123,1,F#5,1'
p2769
(F0.040880503144643004
F-0.3789308176100733
F0.99
F-0.3789308176100733
tp2770
sS'P1,82,1,B4,7'
p2771
(F0.0005617977528012963
F0.0
F0.89
F0.0
tp2772
sS'P1,119,1,F#5,1'
p2773
(F0.04844814534442455
F-0.37433762301288126
F1.0
F-0.37433762301288126
tp2774
sS'P1,19,4,E4,3'
p2775
(F-0.04566385264773826
F-0.4397544128933253
F0.49
F-0.4397544128933253
tp2776
sS'P1,42,4,A3,0'
p2777
(F0.0
F-0.027511357900053546
F0.48
F-0.027511357900053546
tp2778
sS'P1,117,1,B5,5'
p2779
(F0.04177005789907573
F-0.37634408602152014
F1.0
F-0.37634408602152014
tp2780
sS'P1,98,4,D4,1'
p2781
(F3.1086244689504383e-15
F-0.34931506849314664
F0.49
F-0.34931506849314664
tp2782
sS'P1,98,4,D4,4'
p2783
(F-0.0011135857461034848
F-0.3496659242761706
F0.49
F-0.3496659242761706
tp2784
sS'P1,39,4,A2,0'
p2785
(F0.0
F-0.3737437185929647
F0.49
F-0.3737437185929647
tp2786
sS'P1,95,4,B3,5'
p2787
(F-0.03736991485336172
F-0.34437086092715685
F0.49
F-0.34437086092715685
tp2788
sS'P1,30,4,F3,4'
p2789
(F0.0010940919037194519
F-0.2669584245076593
F0.49
F-0.2669584245076593
tp2790
sS'P1,11,4,A3,3'
p2791
(F-0.08320493066256252
F-0.1324435318275145
F0.49
F-0.1324435318275145
tp2792
sS'P1,11,4,A3,0'
p2793
(F-0.07647781091036654
F-0.08012326656394742
F0.49
F-0.08012326656394742
tp2794
sS'P1,39,1,C5,2'
p2795
(F-0.038316582914572406
F-0.4704773869346728
F0.52
F-0.4704773869346728
tp2796
sS'P1,121,1,C#6,1'
p2797
(F0.06915477497255734
F0.0
F0.99
F0.0
tp2798
sS'P1,39,1,C5,0'
p2799
(F0.0
F-0.43216080402010043
F0.52
F-0.43216080402010043
tp2800
sS'P1,116,1,E5,3'
p2801
(F0.014376996805108844
F-0.40255591054313433
F1.0
F-0.40255591054313433
tp2802
sS'P1,123,1,A5,5'
p2803
(F0.03658051689859691
F-0.3823061630218799
F0.99
F-0.3823061630218799
tp2804
sS'P1,51,4,D3,0'
p2805
(F0.05076142131979093
F0.0005857087075270551
F0.84
F0.0005857087075270551
tp2806
sS'P1,51,4,D3,1'
p2807
(F0.04509957048027169
F-0.33073018352207184
F0.7
F-0.33073018352207184
tp2808
sS'P1,103,1,D5,5'
p2809
(F0.0005050505050505083
F0.0010101010101010166
F0.71
F0.0010101010101010166
tp2810
sS'P1,98,4,E4,2'
p2811
(F3.1086244689504383e-15
F-0.34931506849314664
F0.49
F-0.34931506849314664
tp2812
sS'P1,98,4,E4,5'
p2813
(F-0.0011135857461034848
F-0.3496659242761706
F0.49
F-0.3496659242761706
tp2814
sS'P1,5,1,B5,0'
p2815
(F0.06425702811244971
F-0.28915662650602436
F0.97
F-0.28915662650602436
tp2816
sS'P1,22,1,A4,1'
p2817
(F0.0
F-0.4223946784922399
F0.63
F-0.4223946784922399
tp2818
sS'P1,38,2,E4,1'
p2819
(F-4.385380947269368e-15
F0.0
F0.71
F0.0
tp2820
sS'P1,44,4,A3,5'
p2821
(F5.662137425588298e-15
F-0.35390946502056886
F0.62
F-0.35390946502056886
tp2822
sS'P1,44,4,A3,1'
p2823
(F-0.006249999999999978
F0.0
F0.58
F0.0
tp2824
sS'P1,70,1,F#5,1'
p2825
(F0.0016853932584243725
F0.0011235955056128066
F0.69
F0.0011235955056128066
tp2826
sS'P1,44,4,A3,3'
p2827
(F0.0
F-0.35390946502057447
F0.62
F-0.35390946502057447
tp2828
sS'P1,23,1,D5,5'
p2829
(F-0.0734870317002907
F-0.03818443804034821
F0.63
F-0.03818443804034821
tp2830
sS'P1,70,4,G#3,0'
p2831
(F0.0
F-0.34719101123595664
F0.65
F-0.34719101123595664
tp2832
sS'P1,108,4,G#3,1'
p2833
(F-0.0010438413361178456
F-0.36534446764091977
F0.56
F-0.36534446764091977
tp2834
sS'P1,63,4,E3,2'
p2835
(F0.034482758620689856
F-0.06987295825771078
F0.81
F-0.06987295825771078
tp2836
sS'P1,63,4,E3,3'
p2837
(F-0.031760435571685175
F-0.373865698729579
F0.64
F-0.373865698729579
tp2838
sS'P1,98,1,A5,0'
p2839
(F0.0
F0.20205479452055075
F0.93
F0.20205479452055075
tp2840
sS'P1,5,4,B3,5'
p2841
(F0.038989394884591855
F-0.18652526512788437
F0.55
F-0.18652526512788437
tp2842
sS'P1,5,4,B3,3'
p2843
(F0.0
F-0.3976918278228321
F0.55
F-0.3976918278228321
tp2844
sS'P1,5,4,B3,1'
p2845
(F0.03212851405622419
F-0.37951807228915746
F0.55
F-0.37951807228915746
tp2846
sS'P1,5,1,F#5,5'
p2847
(F0.038989394884591855
F-0.33374922021210174
F0.93
F-0.33374922021210174
tp2848
sS'P1,5,1,F#5,1'
p2849
(F0.03212851405622419
F-0.3654618473895591
F0.93
F-0.3654618473895591
tp2850
sS'P1,19,4,C4,1'
p2851
(F-0.03771131339402012
F-0.4479843953185979
F0.49
F-0.4479843953185979
tp2852
sS'P1,54,1,C#6,1'
p2853
(F0.0558917764328897
F-0.10875756496974104
F1.02
F-0.10875756496974104
tp2854
sS'P1,124,1,B4,6'
p2855
(F0.02184087363494236
F-0.4032761310452453
F0.91
F-0.4032761310452453
tp2856
sS'P1,71,1,F#5,2'
p2857
(F-0.0011389521640049471
F-0.0005694760819983102
F0.69
F-0.0005694760819983102
tp2858
sS'P1,83,4,A3,0'
p2859
(F0.0
F-0.33870967741935515
F0.63
F-0.33870967741935515
tp2860
sS'P1,76,1,C#6,0'
p2861
(F0.0
F-0.006465517241379781
F0.66
F-0.006465517241379781
tp2862
sS'P1,76,1,C#6,2'
p2863
(F-0.012931034482759562
F-0.006465517241380669
F0.66
F-0.006465517241380669
tp2864
sS'P1,28,4,D#4,2'
p2865
(F-0.0036880927291902954
F-0.04636459430980289
F0.56
F-0.04636459430980289
tp2866
sS'P1,76,1,C#6,4'
p2867
(F0.0
F-0.0005241090146765048
F0.66
F-0.0005241090146765048
tp2868
sS'P1,28,4,D#4,4'
p2869
(F0.0
F-0.40444444444444444
F0.49
F-0.40444444444444444
tp2870
sS'P1,76,1,C#6,6'
p2871
(F0.001048218029347292
F0.0005241090146707039
F0.66
F0.0005241090146707039
tp2872
sS'P1,28,4,D#4,6'
p2873
(F0.0
F-0.4044444444444445
F0.49
F-0.4044444444444445
tp2874
sS'P1,59,1,B5,7'
p2875
(F0.029664324746285775
F-0.32747853239657143
F0.96
F-0.32747853239657143
tp2876
sS'P1,31,1,C5,0'
p2877
(F0.0
F-0.22416534181240177
F0.63
F-0.22416534181240177
tp2878
sS'P1,83,1,A4,0'
p2879
(F0.0
F0.0011520737327183617
F0.82
F0.0011520737327183617
tp2880
sS'P1,117,1,A5,3'
p2881
(F0.008271298593867165
F-0.40984284532672877
F1.0
F-0.40984284532672877
tp2882
sS'P1,40,1,G#4,0'
p2883
(F0.0
F-0.17106382978723078
F0.48
F-0.17106382978723078
tp2884
sS'P1,40,1,G#4,3'
p2885
(F-0.06996148908857563
F-0.034980744544288345
F0.6
F-0.034980744544288345
tp2886
sS'P1,119,1,G#4,4'
p2887
(F0.04761904761904734
F-0.3787878787878795
F0.91
F-0.3787878787878795
tp2888
sS'P1,68,4,C#4,6'
p2889
(F0.0011389521640132738
F-0.3394077448747098
F0.49
F-0.3394077448747098
tp2890
sS'P1,68,4,C#4,4'
p2891
(F0.0
F-0.3405466970387231
F0.49
F-0.3405466970387231
tp2892
sS'P1,68,4,C#4,2'
p2893
(F3.1086244689504383e-15
F-0.34018264840182244
F0.49
F-0.34018264840182244
tp2894
sS'P1,41,1,B4,2'
p2895
(F-0.03439454235360906
F-0.018334280841385664
F0.6
F-0.018334280841385664
tp2896
sS'P1,52,4,E3,2'
p2897
(F0.0
F-0.3479001135073786
F0.7
F-0.3479001135073786
tp2898
sS'P1,52,4,E3,3'
p2899
(F-0.002837684449491229
F-0.34846765039727845
F0.7
F-0.34846765039727845
tp2900
sS'P1,52,4,E3,0'
p2901
(F0.053309481216463
F-0.006618962432912268
F0.84
F-0.006618962432912268
tp2902
sS'P1,52,4,E3,1'
p2903
(F0.021288014311273695
F-0.332737030411446
F0.7
F-0.332737030411446
tp2904
sS'P1,126,1,G#5,7'
p2905
(F0.021846661170656367
F-0.3841714756801259
F0.99
F-0.3841714756801259
tp2906
sS'P1,99,1,A4,0'
p2907
(F0.0
F-0.0005668934240408985
F0.81
F-0.0005668934240408985
tp2908
sS'P1,5,1,A5,2'
p2909
(F0.03212851405622419
F-0.3654618473895591
F0.82
F-0.3654618473895591
tp2910
sS'P1,5,1,A5,6'
p2911
(F0.038989394884591855
F-0.33374922021210174
F0.93
F-0.33374922021210174
tp2912
sS'P1,31,4,A3,1'
p2913
(F0.0
F-0.39189189189189205
F0.57
F-0.39189189189189205
tp2914
sS'P1,31,4,A3,3'
p2915
(F-0.110492845786964
F-0.502384737678856
F0.57
F-0.502384737678856
tp2916
sS'P1,59,1,A5,5'
p2917
(F0.035519125683054396
F-0.32162373145980294
F0.96
F-0.32162373145980294
tp2918
sS'P1,55,1,E4,6'
p2919
(F-0.009791535060012901
F-0.4377763739734677
F0.96
F-0.4377763739734677
tp2920
sS'P1,101,4,A3,0'
p2921
(F0.0
F-0.24613686534216184
F0.83
F-0.24613686534216184
tp2922
sS'P1,101,1,B4,1'
p2923
(F-0.0005518763796894532
F-0.0011037527593789065
F0.91
F-0.0011037527593789065
tp2924
sS'P1,81,1,A5,7'
p2925
(F-0.0025481313703299424
F-0.07134767836919786
F0.91
F-0.07134767836919786
tp2926
sS'P1,98,1,F#5,2'
p2927
(F3.1086244689504383e-15
F0.0011415525114201186
F0.91
F0.0011415525114201186
tp2928
sS'P1,86,4,G#3,3'
p2929
(F0.0
F-0.33588621444201083
F0.65
F-0.33588621444201083
tp2930
sS'P1,73,4,A3,3'
p2931
(F0.0
F-0.3246753246753257
F0.49
F-0.3246753246753257
tp2932
sS'P1,73,4,A3,1'
p2933
(F-2.942091015256665e-15
F-0.32467532467532867
F0.49
F-0.32467532467532867
tp2934
sS'P1,123,1,B5,7'
p2935
(F0.03996023856857889
F-0.378926441351898
F0.99
F-0.378926441351898
tp2936
sS'P1,73,4,A3,5'
p2937
(F-2.942091015256665e-15
F-0.32467532467532867
F0.49
F-0.32467532467532867
tp2938
sS'P1,13,4,B3,3'
p2939
(F-0.001612903225806428
F-0.3709112149532714
F0.49
F-0.3709112149532714
tp2940
sS'P1,63,1,G#4,4'
p2941
(F0.021778584392014643
F-0.3856624319419231
F0.96
F-0.3856624319419231
tp2942
sS'P1,61,1,A4,2'
p2943
(F0.0
F-0.4024767801857589
F0.96
F-0.4024767801857589
tp2944
sS'P1,59,1,F#5,1'
p2945
(F0.02423797282409114
F-0.330334190231362
F0.96
F-0.330334190231362
tp2946
sS'P1,33,1,F5,5'
p2947
(F-0.04807692307691963
F-0.024038461538455902
F0.8
F-0.024038461538455902
tp2948
sS'P1,111,4,F#3,1'
p2949
(F-0.0010482180293530097
F-0.34800838574423854
F0.56
F-0.34800838574423854
tp2950
sS'P1,75,1,B5,7'
p2951
(F0.018348623853212565
F0.0021551724137930995
F0.67
F0.0021551724137930995
tp2952
sS'P1,97,1,G#5,6'
p2953
(F-0.0010570824524380185
F-0.001585623678657
F0.93
F-0.001585623678657
tp2954
sS'P1,50,1,G#5,7'
p2955
(F0.019183673469388762
F-0.360816326530611
F0.96
F-0.360816326530611
tp2956
sS'P1,125,1,C#5,0'
p2957
(F0.04316020482810141
F-0.0021945866861621255
F0.99
F-0.0021945866861621255
tp2958
sS'P1,95,4,F#3,1'
p2959
(F-0.004228329809731812
F-0.3245243128964149
F0.49
F-0.3245243128964149
tp2960
sS'P1,111,4,C#3,0'
p2961
(F0.0
F-0.36792452830188754
F0.56
F-0.36792452830188754
tp2962
sS'P1,111,4,C#3,3'
p2963
(F0.0
F-0.3688524590163915
F0.56
F-0.3688524590163915
tp2964
sS'P1,94,4,G#3,5'
p2965
(F-0.001618122977340375
F-0.38079827400215016
F0.49
F-0.38079827400215016
tp2966
sS'P1,94,4,G#3,1'
p2967
(F-0.0011337868480663649
F-0.38095238095237327
F0.49
F-0.38095238095237327
tp2968
sS'P1,94,4,G#3,3'
p2969
(F0.0
F-0.3791801510248098
F0.49
F-0.3791801510248098
tp2970
sS'P1,118,4,A3,0'
p2971
(F0.045151739452247305
F-0.012953367875653155
F0.92
F-0.012953367875653155
tp2972
sS'P1,118,4,A3,1'
p2973
(F0.022575869726123687
F-0.3663952627683237
F0.68
F-0.3663952627683237
tp2974
sS'P1,118,4,A3,2'
p2975
(F0.0
F-0.37765089722675405
F0.68
F-0.37765089722675405
tp2976
sS'P1,118,4,A3,3'
p2977
(F0.026101141924957605
F-0.35154975530179644
F0.68
F-0.35154975530179644
tp2978
sS'P1,78,1,E5,3'
p2979
(F-1.1546319456101628e-14
F0.0
F0.66
F0.0
tp2980
sS'P1,78,1,E5,0'
p2981
(F0.0
F-3.858025010572419e-15
F0.66
F-3.858025010572419e-15
tp2982
sS'P1,78,1,E5,6'
p2983
(F-0.0010570824524235856
F-0.0015856236786353506
F0.66
F-0.0015856236786353506
tp2984
sS'P1,56,1,B4,4'
p2985
(F0.008741258741254199
F-0.38986013986014534
F0.96
F-0.38986013986014534
tp2986
sS'P1,82,4,E4,2'
p2987
(F-0.001694915254237317
F-0.3096045197740114
F0.56
F-0.3096045197740114
tp2988
sS'P1,82,4,E4,5'
p2989
(F0.0011235955056128066
F-0.307865168539333
F0.56
F-0.307865168539333
tp2990
sS'P1,84,4,E3,0'
p2991
(F0.0
F0.001052631578956964
F0.69
F0.001052631578956964
tp2992
sS'P1,46,1,A5,0'
p2993
(F0.0
F-0.3879120879120885
F0.71
F-0.3879120879120885
tp2994
ssS'tempo_deviations'
p2995
(dp2996
(I59
I0
tp2997
F1.017921441982235
s(I64
I0
tp2998
F0.6656580419110486
s(I12
I1
tp2999
F1.0553208020246045
s(I85
I0
tp3000
F0.9850035844057002
s(I118
I1
tp3001
F1.1304241788407874
s(I90
I0
tp3002
F0.9977682096895637
s(I38
I1
tp3003
F1.0334825080229844
s(I124
I0
tp3004
F0.9909903777324414
s(I111
I0
tp3005
F0.9684836081473106
s(I15
I1
tp3006
F0.9058170217377839
s(I48
I1
tp3007
F0.7485282437260619
s(I121
I0
tp3008
F1.0141968849314336
s(I25
I1
tp3009
F1.0553208020246005
s(I74
I1
tp3010
F0.9999278811391062
s(I51
I1
tp3011
F1.06689764685052
s(I100
I1
tp3012
F1.054718449968659
s(I4
I0
tp3013
F1.071848447995985
s(I77
I1
tp3014
F1.0428141785243281
s(I9
I0
tp3015
F0.957940240718027
s(I116
I1
tp3016
F1.1012316593236635
s(I30
I0
tp3017
F1.0108680111296922
s(I103
I1
tp3018
F0.9332660223965047
s(I35
I0
tp3019
F0.8771519261131768
s(I40
I0
tp3020
F0.7863262656787602
s(I113
I1
tp3021
F1.0865543263495352
s(I61
I0
tp3022
F0.9916994942817925
s(I66
I0
tp3023
F0.9977682096895637
s(I14
I1
tp3024
F1.0626030617280495
s(I112
I0
tp3025
F0.6773705001264881
s(I87
I0
tp3026
F1.0357997333772782
s(I114
I1
tp3027
F1.1515579919059453
s(I92
I0
tp3028
F1.0108680111297073
s(I24
I1
tp3029
F1.24519321047512
s(I97
I0
tp3030
F1.0020969220960516
s(I1
I1
tp3031
F1.1205983774075676
s(I50
I1
tp3032
F1.1313469740888262
s(I123
I0
tp3033
F1.0895440591657402
s(I27
I1
tp3034
F1.0330973114117097
s(I76
I1
tp3035
F0.9684836081473106
s(I53
I1
tp3036
F1.1411280718475103
s(I102
I1
tp3037
F1.047543494526702
s(I6
I0
tp3038
F0.9720498286928348
s(I79
I1
tp3039
F0.9913448091980058
s(I11
I0
tp3040
F1.0677196018943025
s(I16
I0
tp3041
F0.9604296904080438
s(I89
I1
tp3042
F0.9408690042490412
s(I37
I0
tp3043
F0.9129776306052698
s(I42
I0
tp3044
F0.9327949138541481
s(I115
I1
tp3045
F1.0668976468505031
s(I63
I0
tp3046
F1.0571319933324295
s(I124
I1
tp3047
F1.0810452755528872
s(I104
I1
tp3048
F0.8104678615548594
s(I68
I0
tp3049
F1.054718449968659
s(I73
I0
tp3050
F0.9999278811391062
s(I94
I0
tp3051
F1.047543494526702
s(I26
I1
tp3052
F1.0354128078138336
s(I99
I0
tp3053
F1.0475434945266695
s(I106
I0
tp3054
F1.0288790224638504
s(I3
I1
tp3055
F1.0265926246361552
s(I52
I1
tp3056
F1.0487325336805176
s(I125
I0
tp3057
F1.0138259277679673
s(I29
I1
tp3058
F1.0265926246361552
s(I78
I1
tp3059
F0.9766737443684502
s(I55
I1
tp3060
F0.8754896040801148
s(I88
I1
tp3061
F0.8264162452348351
s(I65
I1
tp3062
F1.0064633574864297
s(I13
I0
tp3063
F0.9934767335188599
s(I18
I0
tp3064
F0.985003584405693
s(I91
I1
tp3065
F1.0334825080229688
s(I39
I0
tp3066
F0.8705402281776451
s(I44
I0
tp3067
F0.9624305855963955
s(I117
I1
tp3068
F1.1463193079063716
s(I49
I0
tp3069
F0.9373689842805659
s(I70
I0
tp3070
F1.038127373227562
s(I2
I1
tp3071
F1.0451734866205198
s(I75
I0
tp3072
F1.0947077750859522
s(I80
I0
tp3073
F0.8765971178107618
s(I28
I1
tp3074
F1.0265926246361552
s(I101
I0
tp3075
F1.0197939979829418
s(I5
I1
tp3076
F1.152755286553388
s(I54
I1
tp3077
F1.1420684328461541
s(I127
I0
tp3078
F1.0373503317805468
s(I128
I3
tp3079
F0.8298802654244323
s(I31
I1
tp3080
F1.3274904628915905
s(I64
I1
tp3081
F0.9075966229592711
s(I41
I1
tp3082
F1.0505211622200585
s(I90
I1
tp3083
F0.9977682096895637
s(I67
I1
tp3084
F1.0768454104574918
s(I15
I0
tp3085
F1.0687488284239925
s(I20
I0
tp3086
F0.9913448091980058
s(I93
I1
tp3087
F1.0153113870027706
s(I25
I0
tp3088
F0.9327949138541545
s(I106
I1
tp3089
F1.0288790224638504
s(I46
I0
tp3090
F1.0153113870027857
s(I119
I1
tp3091
F0.9999278811391062
s(I51
I0
tp3092
F1.0823116308151504
s(I56
I0
tp3093
F0.9040443856874182
s(I4
I1
tp3094
F1.1051834475748101
s(I77
I0
tp3095
F1.0404654979420365
s(I82
I0
tp3096
F1.0439924996299883
s(I30
I1
tp3097
F1.0108680111296922
s(I103
I0
tp3098
F0.9332660223965047
s(I7
I1
tp3099
F0.9276439379242369
s(I40
I1
tp3100
F1.1860505291046708
s(I113
I0
tp3101
F0.9597645728938967
s(I17
I1
tp3102
F1.1149638320666189
s(I66
I1
tp3103
F1.0086608757342297
s(I43
I1
tp3104
F0.9850035844056859
s(I92
I1
tp3105
F1.0108680111296773
s(I69
I1
tp3106
F1.0197939979829418
s(I1
I0
tp3107
F0.9929428932536695
s(I22
I0
tp3108
F1.0265926246361552
s(I95
I1
tp3109
F0.8741091411282245
s(I27
I0
tp3110
F1.1167607117315144
s(I32
I0
tp3111
F1.0644393573416333
s(I105
I1
tp3112
F0.9427891450740112
s(I53
I0
tp3113
F0.9614290969537362
s(I125
I1
tp3114
F1.1217321272835101
s(I58
I0
tp3115
F0.9657840022709534
s(I6
I1
tp3116
F1.122640780282551
s(I79
I0
tp3117
F1.0869804260853175
s(I84
I0
tp3118
F0.9725614338658498
s(I16
I1
tp3119
F0.9684836081473142
s(I89
I0
tp3120
F0.9408690042490151
s(I110
I0
tp3121
F1.0197939979829111
s(I42
I1
tp3122
F1.0724705306703872
s(I122
I0
tp3123
F1.0300260447854526
s(I115
I0
tp3124
F1.0660769563529378
s(I19
I1
tp3125
F1.063622443022879
s(I68
I1
tp3126
F1.052315902246637
s(I45
I1
tp3127
F0.9850035844057002
s(I94
I1
tp3128
F0.9966918685788032
s(I71
I1
tp3129
F0.8570810409763804
s(I3
I0
tp3130
F1.0999206692530235
s(I108
I1
tp3131
F1.0265926246361552
s(I8
I0
tp3132
F0.8271560986325341
s(I81
I1
tp3133
F1.0463571485532703
s(I29
I0
tp3134
F1.0311756274247132
s(I34
I0
tp3135
F1.0220501793944063
s(I107
I1
tp3136
F0.9705182375762175
s(I55
I0
tp3137
F1.108276723917467
s(I60
I0
tp3138
F0.9502228613361758
s(I65
I0
tp3139
F1.061992370313264
s(I86
I0
tp3140
F1.061992370313264
s(I18
I1
tp3141
F1.0668976468505116
s(I126
I0
tp3142
F0.9641043779191749
s(I91
I0
tp3143
F1.0311756274247053
s(I96
I0
tp3144
F0.8987678620355508
s(I44
I1
tp3145
F0.9505487265149692
s(I117
I0
tp3146
F1.0149396142503033
s(I116
I0
tp3147
F0.9839545923030184
s(I21
I1
tp3148
F1.0929811066709887
s(I70
I1
tp3149
F1.0381273732275937
s(I47
I1
tp3150
F1.2519422251660475
s(I80
I1
tp3151
F1.0243163660449461
s(I126
I1
tp3152
F1.1425391947723191
s(I57
I1
tp3153
F1.1482187599493097
s(I5
I0
tp3154
F0.9276439379242354
s(I10
I0
tp3155
F0.9309152263703191
s(I83
I1
tp3156
F1.0644393573416333
s(I31
I0
tp3157
F0.7344462338414454
s(I36
I0
tp3158
F0.9447171392357282
s(I109
I1
tp3159
F0.9913448091980058
s(I41
I0
tp3160
F0.9000812101047626
s(I128
I0
tp3161
F0.8298802654244323
s(I62
I0
tp3162
F0.9345246414422256
s(I114
I0
tp3163
F0.9832565046178189
s(I67
I0
tp3164
F1.0644393573416333
s(I72
I0
tp3165
F0.8970226817208965
s(I20
I1
tp3166
F1.0042753936658015
s(I93
I0
tp3167
F1.0130848269435864
s(I98
I0
tp3168
F1.054718449968659
s(I46
I1
tp3169
F1.0175477556966224
s(I119
I0
tp3170
F1.049129480135349
s(I23
I1
tp3171
F0.9984870628665777
s(I56
I1
tp3172
F0.8076340578431219
s(I33
I1
tp3173
F1.110496829534311
s(I82
I1
tp3174
F1.038127373227562
s(I59
I1
tp3175
F1.0818891828718251
s(I7
I0
tp3176
F0.9881640237139455
s(I108
I0
tp3177
F0.9644398352531711
s(I12
I0
tp3178
F0.9276439379242354
s(I85
I1
tp3179
F0.987108292919357
s(I17
I0
tp3180
F0.920863816118813
s(I38
I0
tp3181
F0.9871082929193713
s(I111
I1
tp3182
F0.8414693644558774
s(I43
I0
tp3183
F1.0175477556966377
s(I48
I0
tp3184
F0.6473143592988397
s(I121
I1
tp3185
F1.1506019454203196
s(I69
I0
tp3186
F1.017547755696607
s(I74
I0
tp3187
F0.9999278811391358
s(I22
I1
tp3188
F1.0243163660449386
s(I95
I0
tp3189
F0.976673744368422
s(I118
I0
tp3190
F1.025832748526147
s(I100
I0
tp3191
F0.9544766138145874
s(I32
I1
tp3192
F1.0547184499686508
s(I105
I0
tp3193
F0.9427891450740112
s(I9
I1
tp3194
F1.1673194721068096
s(I58
I1
tp3195
F1.117661325208713
s(I35
I1
tp3196
F1.0467522985338362
s(I84
I1
tp3197
F1.1406584718179502
s(I61
I1
tp3198
F1.0726780520578978
s(I110
I1
tp3199
F1.0197939979829418
s(I14
I0
tp3200
F1.0169877404210683
s(I87
I1
tp3201
F1.038127373227562
s(I19
I0
tp3202
F0.9011053597261403
s(I24
I0
tp3203
F0.8269093336866437
s(I97
I1
tp3204
F0.976673744368422
s(I45
I0
tp3205
F0.9850035844056859
s(I128
I2
tp3206
F0.8298802654244323
s(I50
I0
tp3207
F0.9913448091980058
s(I123
I1
tp3208
F1.1021073902654588
s(I71
I0
tp3209
F1.052315902246637
s(I76
I0
tp3210
F0.9956178471686831
s(I8
I1
tp3211
F1.1891034262194857
s(I81
I0
tp3212
F1.054718449968659
s(I102
I0
tp3213
F1.0475434945266695
s(I34
I1
tp3214
F1.022050179394391
s(I107
I0
tp3215
F1.0265926246361552
s(I120
I1
tp3216
F1.117210836968007
s(I11
I1
tp3217
F0.9485968810806387
s(I60
I1
tp3218
F1.0354128078138258
s(I128
I4
tp3219
F0.8298802654244323
s(I37
I1
tp3220
F1.1322712771722376
s(I86
I1
tp3221
F1.0108680111297073
s(I63
I1
tp3222
F0.8384150291946869
s(I96
I1
tp3223
F1.1463193079063716
s(I0
I0
tp3224
F1.160720304236859
s(I73
I1
tp3225
F0.9999278811391062
s(I21
I0
tp3226
F0.9270234403068974
s(I26
I0
tp3227
F0.936102697236613
s(I99
I1
tp3228
F0.9999278811391358
s(I47
I0
tp3229
F0.7147498933774148
s(I52
I0
tp3230
F0.9916994942817925
s(I112
I1
tp3231
F0.7383591066909009
s(I57
I0
tp3232
F0.9485968810806353
s(I104
I0
tp3233
F0.5267579031770503
s(I78
I0
tp3234
F0.978742968403099
s(I10
I1
tp3235
F0.9723908389817995
s(I83
I0
tp3236
F1.0644393573416333
s(I88
I0
tp3237
F0.57890561539633
s(I36
I1
tp3238
F1.0042753936658089
s(I109
I0
tp3239
F0.9913448091980058
s(I128
I1
tp3240
F0.8298802654244323
s(I13
I1
tp3241
F1.0793614044071693
s(I62
I1
tp3242
F1.1131727255090718
s(I120
I0
tp3243
F1.03579973337731
s(I122
I1
tp3244
F1.1304241788407874
s(I39
I1
tp3245
F1.0304089540957604
s(I72
I1
tp3246
F0.8987678620355508
s(I49
I1
tp3247
F1.1267480026494323
s(I98
I1
tp3248
F1.0288790224638504
s(I2
I0
tp3249
F0.8757662200687579
s(I75
I1
tp3250
F1.059556607996034
s(I23
I0
tp3251
F0.9245497286583113
s(I28
I0
tp3252
F0.9735862615095222
s(I101
I1
tp3253
F1.0197939979829418
s(I33
I0
tp3254
F0.9093832304847799
s(I54
I0
tp3255
F0.9867568837727481
s(I127
I1
tp3256
F0.8298802654244323
ssS'measure_lengths'
p3257
(dp3258
I0
I1
sI1
I2
sI2
I2
sI3
I2
sI4
I2
sI5
I2
sI6
I2
sI7
I2
sI8
I2
sI9
I2
sI10
I2
sI11
I2
sI12
I2
sI13
I2
sI14
I2
sI15
I2
sI16
I2
sI17
I2
sI18
I2
sI19
I2
sI20
I2
sI21
I2
sI22
I2
sI23
I2
sI24
I2
sI25
I2
sI26
I2
sI27
I2
sI28
I2
sI29
I2
sI30
I2
sI31
I2
sI32
I2
sI33
I2
sI34
I2
sI35
I2
sI36
I2
sI37
I2
sI38
I2
sI39
I2
sI40
I2
sI41
I2
sI42
I2
sI43
I2
sI44
I2
sI45
I2
sI46
I2
sI47
I2
sI48
I2
sI49
I2
sI50
I2
sI51
I2
sI52
I2
sI53
I2
sI54
I2
sI55
I2
sI56
I2
sI57
I2
sI58
I2
sI59
I2
sI60
I2
sI61
I2
sI62
I2
sI63
I2
sI64
I2
sI65
I2
sI66
I2
sI67
I2
sI68
I2
sI69
I2
sI70
I2
sI71
I2
sI72
I2
sI73
I2
sI74
I2
sI75
I2
sI76
I2
sI77
I2
sI78
I2
sI79
I2
sI80
I2
sI81
I2
sI82
I2
sI83
I2
sI84
I2
sI85
I2
sI86
I2
sI87
I2
sI88
I2
sI89
I2
sI90
I2
sI91
I2
sI92
I2
sI93
I2
sI94
I2
sI95
I2
sI96
I2
sI97
I2
sI98
I2
sI99
I2
sI100
I2
sI101
I2
sI102
I2
sI103
I2
sI104
I2
sI105
I2
sI106
I2
sI107
I2
sI108
I2
sI109
I2
sI110
I2
sI111
I2
sI112
I2
sI113
I2
sI114
I2
sI115
I2
sI116
I2
sI117
I2
sI118
I2
sI119
I2
sI120
I2
sI121
I2
sI122
I2
sI123
I2
sI124
I2
sI125
I2
sI126
I2
sI127
I2
sI128
I5
ss.